(iDELclass
BlatInfo
p1
(dp2
S'qBaseInserts'
p3
I1735
sS'deletions'
p4
(lp5
(lp6
I24891028
aI24892762
aasS'qEnd'
p7
I200
sS'name'
p8
S'13853_WTSI_Med23'
p9
sS'querySize'
p10
I200
sS'qCuts'
p11
(lp12
I0
aI100
asS'qBlocks'
p13
(lp14
I100
aI100
asS'Chromosome'
p15
S'chr10'
p16
sS'tBaseInserts'
p17
I0
sS'genomicFlats'
p18
(lp19
(lp20
I24890928
aI24891028
aa(lp21
I24892763
aI24892863
aasS'deletionSequences'
p22
(dp23
S'>chr10(+):24891028-24892762'
p24
S'CATGAAGGCGCTCTGTTAAAAATGACCCGCACCTTTCTACACGTGTTGTTAGTTGCTGAGTGTACATTTGTGCTCTAACATTTCTTACAGTTAGCAGGGCGAGGACTGATTAAAGGGCGAGACCATCTGATGTGGGTGCTGCTGCAGTTCATTTCTGGAAGTATTCAGAAAAATGCCCTCGCTGACTTCCTCCCTGTCATGAAGCTCTTTGACCTGCTGTACCCGGAGAAGGAGGTAAGTGTCCCCGAGTCCTTAGCAGAGCCCTGGAGCTTGTCCAGTGTGTGTGCAAGAGGACTGGATCACCGTGTGTGCCCTCTCATGCTAGTCCATGGCTCGCTCTGATCAGTGGTCTGGGCATTCAGTCTCTTTTGTCGTTGGTTTTCTTGTGTGTGAAATCAAGAAATTGAACCAGGTTGTTTCTAGCATCTGTCTGAGGTCACAATTTGAGTATTTGTGGAAAACTCTTCTTGTGTGTTCTAAGTAGCTGTATAGCTTTAAAATGTCATAATGCCCTTGATCTGTACGTGTCACCGAGTGGTCACGTAATAAGTGTGTGTTAGTGCATAGGTTTTGTTTGTTGACTGGGTCTCATGGTGCTCCAACCCAGTTTTCTGTTATATAACATGGTTGAGAAAAGCATAATTTATTTTGATGGTTACCATTTTCTACAAGAACCACTTTATGGAAAAGTTGCTTTTTTGGGGTTTTTTTTTTTTTTTttttggcttttcgagacagggtttctctgcagccctggctgtcctggaactcactctgaagaccaggctggcctcgaactcagagatccaccagcctctgcctcccaagtgctgggattaaaggcatgagccatcatgcccggAACCCAGGAGTGTGAATAGAACACTAACCACTCCTGTCCCTGCCACCAGGACACTCTTGTTTCATGCTGCATTGTTCTTTATTATTTTTTGTTGTCATTTTTAATGCTGGATAATTGTAGTTTTAAAGTAGATTCCAGCTATCTATAGTTCATAATTCTCATATTTTCCTAGTGTTTCTGTCTTCAAGATTTTATTTTACTTTTAAAGTTAAATCACAGTGTGTACATTAGGTGGACCACATTAACATGCCCAGTTGTGTTTTTATTTGAGTGTTAAAAGTTGAAATACATTTGTGAGAATTACAGAATTTATCACAATTTGTTACGCTTTTGGAATATGTTCAATTTTTCAAAATTAAACTTTAAACAACTTTTGTTCATTAGTTCTGTGATAGGGAAACCTTGGTTAAGCGTCTTTCATTTTGTTAAGAAGTAGAAACTTGCCAACAAGAACCTCTTTTTGAAACTTTTATGCTGTAAGGCCTCTCGTAATGTTGACTGGTCAAAGAGCTATTGGGGCTAAGCTAAGATAGGAGTTCTAACGCGCTACACCGTAAAGGATTTCTGAGCTGCGCATGACTATTTGATCCTCATTCATATGGCAGCTAACTACTCTTTTCCAGTGTATCCCAGTTCCTGATATTAACAAACCCCAGTCAACGCACGCCTTTGCAATGACTTGTATTTGGATTCATCTTAATAGAAAAGCTCAAAATGGCGACTCCACGCTCCAGATCCCAATACCCCATTCCCTGAAGCTGCACCATGAGTAAGTTATTTGTTATGTGGAGCTTAACTGTCTTGTTGCGTTAATAGTGGCTTGTAGACTGGTATTGATCTTAGTATTTGCGTGGTGTTTGATGTCTCCCACAC'
p25
ssS'tEnd'
p26
S'24892863'
p27
sS'DelGenomicSeqs'
p28
(dp29
S'chr10(+):24890928-24891028'
p30
(dp31
S'Genomic'
p32
S'agcCTCCTCAGCACTCCACCCCATCTTGCATCATCACCATTAGGTGATGGCCAGACTGAGTATATGAGCCTTTGTAGATCATTTGAGATCCAGACTAGAA'
p33
sS'Del'
p34
S'AGCCTCCTCAGCACTCCACCCCATCTTGCATCATCACCATTAGGTGATGGCCAGACTGAGTATATGAGCCTTTGTAGATCATTTGAGATCCAGACTAGAA'
p35
ssS'chr10(+):24892763-24892863'
p36
(dp37
g32
S'GGCCCAGTAGGCTGATAGTTAACCCTGATAGTTAATATATATGTTACAGTAAGGAACTGGCCAATGGCAACGTCAGAAAACAACTTGACCGAGCCTTCTC'
p38
sg34
S'GGCCCAGTAGGCTGATAGTTAACCCTGATAGTTAATATATATGTTACAGTAAGGAACTGGCCAATGGCAACGTCAGAAAACAACTTGACCGAGCCTTCTC'
p39
sssS'tCuts'
p40
(lp41
S'24890928'
p42
aS'24892763'
p43
asS'tStrand'
p44
S'+'
sS'NumMisMatches'
p45
I200
sS'tStart'
p46
S'24890928'
p47
sS'percentCoverage'
p48
F1
sS'qStart'
p49
I0
sS'QuerySequence'
p50
S'AGCCTCCTCAGCACTCCACCCCATCTTGCATCATCACCATTAGGTGATGGCCAGACTGAGTATATGAGCCTTTGTAGATCATTTGAGATCCAGACTAGAAGGCCCAGTAGGCTGATAGTTAACCCTGATAGTTAATATATATGTTACAGTAAGGAACTGGCCAATGGCAACGTCAGAAAACAACTTGACCGAGCCTTCTC'
p51
sS'QCPass'
p52
I01
sb.