(iDELclass
BlatInfo
p1
(dp2
S'qBaseInserts'
p3
I278
sS'deletions'
p4
(lp5
(lp6
I9695649
aI9695926
aasS'qEnd'
p7
I200
sS'name'
p8
S'14273_WTSI_Zmynd11'
p9
sS'querySize'
p10
I200
sS'qCuts'
p11
(lp12
I0
aI100
asS'qBlocks'
p13
(lp14
I100
aI100
asS'Chromosome'
p15
S'chr13'
p16
sS'tBaseInserts'
p17
I0
sS'genomicFlats'
p18
(lp19
(lp20
I9695549
aI9695649
aa(lp21
I9695927
aI9696027
aasS'deletionSequences'
p22
(dp23
S'>chr13(+):9695649-9695926'
p24
S'CTCATGTATGAATTACAAAGAACTGTTGCAGATATTCAACGTGGAATTTAATATTTTCAAACTGTACAGAAAGACAAAAAGGATGGAACCTCCATAGAAGATCACTGTGTTGTGGAGAAGCAGCTGTGCGTCAGCCTTGAACTCCTCGTAACTCCGGTACTTCCCCTCATTCACCTTCTGTGGGGTAAAAGACAGAACTTGAGAAGGGGACACAGCAGAATCTGCCCAGATGACATCTGAACTCTGGCTGCCTGCACCAGAAATAACAGAGCCACATG'
p25
ssS'tEnd'
p26
S'9696027'
p27
sS'DelGenomicSeqs'
p28
(dp29
S'chr13(+):9695549-9695649'
p30
(dp31
S'Genomic'
p32
S'aaaAAAGGTCAAAAGAATGCTTTCCCCACACAGGGCACTGGCCATCACCTCTGTAAGCCACACCAGGAAGCAAGCATCAGTTTAAATTCCAACATCATTA'
p33
sS'Del'
p34
S'AAAAAAGGTCAAAAGAATGCTTTCCCCACACAGGGCACTGGCCATCACCTCTGTAAGCCACACCAGGAAGCAAGCATCAGTTTAAATTCCAACATCATTA'
p35
ssS'chr13(+):9695927-9696027'
p36
(dp37
g32
S'TGGCCAGTGTGTCTACTTCCCACAGTGGACTGCACAGCTGCCATGCCTCAACTGCAGCTGTGGGGGCAGCTGCTGCTGAGCTTTGCCAATAGGAAATGAT'
p38
sg34
S'TGGCCAGTGTGTCTACTTCCCACAGTGGACTGCACAGCTGCCATGCCTCAACTGCAGCTGTGGGGGCAGCTGCTGCTGAGCTTTGCCAATAGGAAATGAT'
p39
sssS'tCuts'
p40
(lp41
S'9695549'
p42
aS'9695927'
p43
asS'tStrand'
p44
S'+'
sS'NumMisMatches'
p45
I200
sS'tStart'
p46
S'9695549'
p47
sS'percentCoverage'
p48
F1
sS'qStart'
p49
I0
sS'QuerySequence'
p50
S'AAAAAAGGTCAAAAGAATGCTTTCCCCACACAGGGCACTGGCCATCACCTCTGTAAGCCACACCAGGAAGCAAGCATCAGTTTAAATTCCAACATCATTATGGCCAGTGTGTCTACTTCCCACAGTGGACTGCACAGCTGCCATGCCTCAACTGCAGCTGTGGGGGCAGCTGCTGCTGAGCTTTGCCAATAGGAAATGAT'
p51
sS'QCPass'
p52
I01
sb.