(iDELclass
BlatInfo
p1
(dp2
S'qBaseInserts'
p3
I2654
sS'deletions'
p4
(lp5
(lp6
I17973221
aI17975874
aasS'qEnd'
p7
I200
sS'name'
p8
S'14751_WTSI_Ceacam11'
p9
sS'querySize'
p10
I200
sS'qCuts'
p11
(lp12
I0
aI100
asS'qBlocks'
p13
(lp14
I100
aI100
asS'Chromosome'
p15
S'chr7'
p16
sS'tBaseInserts'
p17
I0
sS'genomicFlats'
p18
(lp19
(lp20
I17973121
aI17973221
aa(lp21
I17975875
aI17975975
aasS'deletionSequences'
p22
(dp23
S'>chr7(+):17973221-17975874'
p24
S'CTTCCAAGTACAATGGTCTCTTAACTCCTTACCAGCTAGGCTGATTGATGAGCATATCCACTCTGGACACAGATCTAATCTTTTAATCAAATACAGAGGTCCCAATATTCATCAAATTCCTCTCTTTCCTTCTAGTCTCCCTTTTAACCTGCTGGCTGATTCCAACTACCACCCAGATCACCATTGAATCAGTGCCTCCCATTGCTGTTGAAGGGGAAAATGTTCTTCTGTTTGTGCATAACTTGCCAGAGAATGTTCAAACCCTTTCCTGGTACACAGGAGTTAAACCACTCAAGAATTGTGAAATTGCAAGTCATGTGACAGCTACCAATTCTACTGTGGTGGGACCTGCACACAGTGGTAGAGAGATTGTACTCAAAAATGGATCTCTGCTGATCAAGAGTACCACCAGAAAAGACTCAGGTTATTACACTCTACAAATACTTGATACAACCTCAAGACCTGAATTAATACGTGCAGAATTCTTTGTTCACAGTAAGTCAATATTTTGTGAACTCTGTTGTAGGGTGAGGTTCATTCCATTGTACAGAAGAGTGTCAAGTCTGACCTGGATCTACCTCCCCCCTGAATTGTTTATCCATGTCATTGTTTGAGGTTTAAATGGGAGACACATATTTTGAGGAAAACTGTCATAGACCAGAATCCCTTACTTGACTGCACACGCAGAGAGTTGGGAGTGTCAGCCTCAGCCCAAACCCTGGGGTCTCTCACCATAAACCTGTACCTGAGTTGAGGAAGAGATGAGGAAATTATGGGATCTTCAGTGAGCCTGGATCCAGACCTCTGCCCAAGACTCAGCTCAGAGTGAGGGAAGACAGCAGAGCTGATATTAGAGCAGGCTCAGGGGTACTGGGGGAGGTGAATGTGTTCTCCAAGAGGGAGAACTGAGCAGGCTTCAGAGGTTGTGGAGCTGCCTCCGTAATCTCCAAGCAAATGTACACACAGTGATAGAAAATCCTTCCTCAGGTGCCTATACAATTCTCTATCCATGTGTGGGAGGAGGTTAGCTGAGTGATTGTCTGGATTCTTGTGGAGAGGATAAAGGCTTCAGAAAAGACTCAGGATTTCTGTTTGCAACATGAGATGAGAAAACACAGCAAGGTAGACAGCTCCTCAGCATCTTGAAACTCTAGTGAACAGGAATTGGTAAGATGGGGGAGCAAAAAAAGTTGCATTGTTCATTTATCAAGTTCATTAACTACCTTGGCAAGTATAGTCCAAAGACTAATGTCCCCACCTATGACAAGATGACTCTTCAAATGAAAAGCAAATTATgagatgactcagtgaatatgggtacttgctgtcatccctgatgacttgagttcaatcctcttatctcaaatggtggaaggagagaactcagtcacacaagctgtcctctggcctacacatagatattgtggcatgcacccactaaaccatacacTGATATATGCTTGATGCATGTTCCCTTCCTTAATACAGCGTCAATAAAAATACATCAAATTGGGGTATGAAAATTGTAATTAGCTCAGAACCTGAAAATCTGATAACTTACTGCATGGACATAGAATGACCTGGAGCACACATCCATCTATCAATTCAATCCTTTATCCATTGAGCAGTTTCTATTAATTGAGTCTTTCAATATTATCACACTGATCCCAGGCCAAACAGTCTTCTATTGGATGGGAATAGACATGAGAAAGGGCATCAAGAATGCACCATAAAAGTTCCAGTGCAAAATTATGTCAGTGTGTAGACCTAGTTTCTATGGAGGAAGATGCTAGGGGTGTGTACTCTCCTTCACACACAGTGGGACtgagcatagatctgagggcagtgaagggtaagccatgaagatagaggagatagagccccatacagaCTTTCATTGGCACTTCGGGCATAGAATTTTTGTGACTGACCTACACAGAGTAGGATAGACACACCCTTACCCACACACAAAGGCTGAGTAATGGACACTCCTGCTCAGGACTCAGAGATCTTTCTTCCCACCTAATGCAGAGGAATCACTTTTAATGGTTTCCTTCTATTTCTTTTTTTTTTCCATCTAGGCCCACTTTTAGGCTACAAGAAGCATCTTGCCCCTTCTCAACTCACAATTAAGTTGGTGCCATCTAGGGTTGAAGAAAATGACAATATTCTCCTGCAGGTTTATCATCTGCCACAGAAGCTTCAAGGCTTTGCCTGGCACAAAGGAGTACTTCCACTTGACCATTTTAAGATAGCAAGCCATTCATTCCTCACCCATTCAACTATGCTGGGGAGTGCATATCAAGACAGAGTGATAATATGTAATGATGGAACCCTGGTGCTCTTGAATGTCACTCAGAATGACACAGGGCTTTACACCTTCCGAACCATATCTGTGGATTTGAAATCAGAATGGGACATTTTGGACCTCCAAGTAAATAGTAAGTGAATATTTGTGACTCCTGAGTGGTAGTGGAGTTTATTCTTCTCTTTATATGTAAAACATTGAGGCTTGCATTGTACCTTCATCCCATCTGTATTGTGTACACTCACTTAGGTTTGGGCATTTAGTAAAAGACACACATCATGGTGGTGAACTGAAATATATCAGAAACCTTTGACCTGAGTGGAACCTCCAAACAGTAGTATTATAA'
p25
ssS'tEnd'
p26
S'17975975'
p27
sS'DelGenomicSeqs'
p28
(dp29
S'chr7(+):17975875-17975975'
p30
(dp31
S'Genomic'
p32
S'CTCAGACCAAGGATTTCATTCTCAGCTCAGACTCTGGGTTCTCACCCTGAAAATAGTCTTGAGAAAGCTTCCTGACATTGCTTGAATTTTACTACCCAAT'
p33
sS'Del'
p34
S'CTCAGACCAAGGATTTCATTCTCAGCTCAGACTCTGGGTTCTCACCCTGAAAATAGTCTTGAGAAAGCTTCCTGACATTGCTTGAATTTTACTACCCAAT'
p35
ssS'chr7(+):17973121-17973221'
p36
(dp37
g32
S'GCACTTTGCAGATTCCTTAAGATACCCAAGGAGTTAGTTCCATACTTAGATAGGAACATGTTCAGGGCCACTGATGGAGCACAGATTATGTTGCTTACCC'
p38
sg34
S'GCACTTTGCAGATTCCTTAAGATACCCAAGGAGTTAGTTCCATACTTAGATAGGAACATGTTCAGGGCCACTGATGGAGCACAGATTATGTTGCTTACCC'
p39
sssS'tCuts'
p40
(lp41
S'17973121'
p42
aS'17975875'
p43
asS'tStrand'
p44
S'+'
sS'NumMisMatches'
p45
I200
sS'tStart'
p46
S'17973121'
p47
sS'percentCoverage'
p48
F1
sS'qStart'
p49
I0
sS'QuerySequence'
p50
S'GCACTTTGCAGATTCCTTAAGATACCCAAGGAGTTAGTTCCATACTTAGATAGGAACATGTTCAGGGCCACTGATGGAGCACAGATTATGTTGCTTACCCCTCAGACCAAGGATTTCATTCTCAGCTCAGACTCTGGGTTCTCACCCTGAAAATAGTCTTGAGAAAGCTTCCTGACATTGCTTGAATTTTACTACCCAAT'
p51
sS'QCPass'
p52
I01
sb.