(iDELclass
BlatInfo
p1
(dp2
S'qBaseInserts'
p3
I406
sS'deletions'
p4
(lp5
(lp6
I27324393
aI27324798
aasS'qEnd'
p7
I200
sS'name'
p8
S'14955_WTSI_Ostn'
p9
sS'querySize'
p10
I200
sS'qCuts'
p11
(lp12
I0
aI98
asS'qBlocks'
p13
(lp14
I98
aI102
asS'Chromosome'
p15
S'chr16'
p16
sS'tBaseInserts'
p17
I0
sS'genomicFlats'
p18
(lp19
(lp20
I27324295
aI27324393
aa(lp21
I27324799
aI27324901
aasS'deletionSequences'
p22
(dp23
S'>chr16(+):27324393-27324798'
p24
S'ATAACCCTGGGAGAACATAAAAGGATCAACAGGCATGTCATCTAGTGGTAGGAAATGGCTATTGCTAATTGTGTACATACTTATATTTCATGATATAAGTGAATGGGAGTACCTTTATCTTCCCTGTAGGAGTTTGGAACAGCAAGCTTGCAGTCTCCACCCACAGCCAGAGAAGAGAAGTCAGCCACTGAGCTTTCGGCTAAGCTCCTGCGTCTTGATGATCTGGTGTCCTTAGAGAATGACGTATTTGAGACCAAGAAAAAGAGAAGCTTCTCTGGCTTTGGGTCTCCCCTTGACAGACTCTCAGCTGGGTCTGTAGAGCATAGAGGGAAACAAAGGTAGGTGGACAAGGAAAATAACCCCATGGACTGGCTCTTCCATTTTAGAGTCTGCAACATGATCCCAC'
p25
ssS'tEnd'
p26
S'27324901'
p27
sS'DelGenomicSeqs'
p28
(dp29
S'chr16(+):27324799-27324901'
p30
(dp31
S'Genomic'
p32
S'ATgggccaagaagtgggagtgggtgggtaggggagcagggtgggggggaaggtacagggaattttggggatagcatttgaaatgtaatatatatatatatat'
p33
sS'Del'
p34
S'ATGGGCCAAGAAGTGGGAGTGGGTGGGTAGGGGAGCAGGGTGGGGGGGAAGGTACAGGGAATTTTGGGGATAGCATTTGAAATGTAATATATATATATATAT'
p35
ssS'chr16(+):27324295-27324393'
p36
(dp37
g32
S'TAGAAACATGCTGGAAGGGGAGGTGTTGTTCTTTTCTCCTGGGTGTATTCTACCTCTGTAGGTTTTAGTCCCACAAAGTTTAGTTTTTGTTCTAAATC'
p38
sg34
S'TAGAAACATGCTGGAAGGGGAGGTGTTGTTCTTTTCTCCTGGGTGTATTCTACCTCTGTAGGTTTTAGTCCCACAAAGTTTAGTTTTTGTTCTAAATC'
p39
sssS'tCuts'
p40
(lp41
S'27324295'
p42
aS'27324799'
p43
asS'tStrand'
p44
S'+'
sS'NumMisMatches'
p45
I200
sS'tStart'
p46
S'27324295'
p47
sS'percentCoverage'
p48
F1
sS'qStart'
p49
I0
sS'QuerySequence'
p50
S'TAGAAACATGCTGGAAGGGGAGGTGTTGTTCTTTTCTCCTGGGTGTATTCTACCTCTGTAGGTTTTAGTCCCACAAAGTTTAGTTTTTGTTCTAAATCATGGGCCAAGAAGTGGGAGTGGGTGGGTAGGGGAGCAGGGTGGGGGGGAAGGTACAGGGAATTTTGGGGATAGCATTTGAAATGTAATATATATATATATAT'
p51
sS'QCPass'
p52
I01
sb.