(iDELclass
BlatInfo
p1
(dp2
S'qBaseInserts'
p3
I969
sS'deletions'
p4
(lp5
(lp6
I84064625
aI84065593
aasS'qEnd'
p7
I200
sS'name'
p8
S'15139_WTSI_Gm17750'
p9
sS'querySize'
p10
I200
sS'qCuts'
p11
(lp12
I0
aI100
asS'qBlocks'
p13
(lp14
I100
aI100
asS'Chromosome'
p15
S'chr13'
p16
sS'tBaseInserts'
p17
I0
sS'genomicFlats'
p18
(lp19
(lp20
I84064525
aI84064625
aa(lp21
I84065594
aI84065694
aasS'deletionSequences'
p22
(dp23
S'>chr13(+):84064625-84065593'
p24
S'CAAATGACACCTGGAGTGCACTCACCTTTATTGACAATCTCTGTTCTGAAAGTCCATTTGCTTCCTTAAAGCCCCCAAGCAGAACAAGGACTACCCGTTTTCATTCAGTTAATGTTTAGTAAAAATCCAAGCAACCTTAATCAGCATGCTGATTGCATCGTCAACTAACAAATAATTTACTACTCTGAGCATTGCATTCCATTAAAAGCTCATTAAATTTTCTGTTCTCCAATGGGAGGTTTAGCTTTTGAACTGCATGCTTTTGCTTCGAATGTTCATTTATTGAATTTTTATAAAATGTGGGGGTTTCCCCCCCTCCACTAAAGTATAGGTGAGTATTTCAATACCTATAGACTGTCAACACACAAAAACCACAGCCCAGGGCTTGATCATGTTTGTTTTGATTTACACAATCTTTTTAATAAAAAATCCTGCACAATTGCTTGTACTTTCAAGACTCTGAAATACCTGTCTTTATCTATGGTCATAAGGAACCAAACATAACCTCAAAAAACACCAATACCTATTATAAAATTTCAAATTCTTTTTTAAAAGTTTATGATCTTCTTTCCTATATATTATAGCTATTGTTGTATTTATTATGTTATCCTCATATATTATGTTATCCTCATTGCTGCCTACTGATTCGAAGGGGGACAATGACACTACAAAGCTATTAAATGACAAACTTTGACAGGGCGACCAGTTACCCACAAAAAAATGTACATTTGCTGGGGTTTGCACATTTCCCACATATCCCTAGTCCTCTGATTTGTTTTTATGCCCAGACTCATCAAGAAAAGGGtatatttattatttttaatttaGGGAAGTGTAGAAAATATTAGACCACAAATTAACATGCATCTTTGGATTGCTAATTGTGCTCATTGCAAATTTGGGTCATTTTGCATGAGTGAGTCTAATGTGGGGCTTAGATTGCCGTGCAGCTCAGTGGATTCCTGATTC'
p25
ssS'tEnd'
p26
S'84065694'
p27
sS'DelGenomicSeqs'
p28
(dp29
S'chr13(+):84064525-84064625'
p30
(dp31
S'Genomic'
p32
S'GGCCCACTGTTTCTTTAAACAGAGTCCACAATACACTAGGCGAACATTGTGGATTTAAAATGCTTTTAAATATTTATCACCAGTATTTTATCATCATATC'
p33
sS'Del'
p34
S'GGCCCACTGTTTCTTTAAACAGAGTCCACAATACACTAGGCGAACATTGTGGATTTAAAATGCTTTTAAATATTTATCACCAGTATTTTATCATCATATC'
p35
ssS'chr13(+):84065594-84065694'
p36
(dp37
g32
S'CCCTCGCTAATCCTGAACTCAGTGATTGTGTCAGGTGCAGTTCTGTGTGCTCTAGCAGCTGGCTCATCCTCATCAATGCAAATAAGGCAACTCCTACAAT'
p38
sg34
S'CCCTCGCTAATCCTGAACTCAGTGATTGTGTCAGGTGCAGTTCTGTGTGCTCTAGCAGCTGGCTCATCCTCATCAATGCAAATAAGGCAACTCCTACAAT'
p39
sssS'tCuts'
p40
(lp41
S'84064525'
p42
aS'84065594'
p43
asS'tStrand'
p44
S'+'
sS'NumMisMatches'
p45
I200
sS'tStart'
p46
S'84064525'
p47
sS'percentCoverage'
p48
F1
sS'qStart'
p49
I0
sS'QuerySequence'
p50
S'GGCCCACTGTTTCTTTAAACAGAGTCCACAATACACTAGGCGAACATTGTGGATTTAAAATGCTTTTAAATATTTATCACCAGTATTTTATCATCATATCCCCTCGCTAATCCTGAACTCAGTGATTGTGTCAGGTGCAGTTCTGTGTGCTCTAGCAGCTGGCTCATCCTCATCAATGCAAATAAGGCAACTCCTACAAT'
p51
sS'QCPass'
p52
I01
sb.