(iDELclass
BlatInfo
p1
(dp2
S'qBaseInserts'
p3
I381
sS'deletions'
p4
(lp5
(lp6
I79807459
aI79807839
aasS'qEnd'
p7
I200
sS'name'
p8
S'15461_WTSI_Palm'
p9
sS'querySize'
p10
I200
sS'qCuts'
p11
(lp12
I0
aI100
asS'qBlocks'
p13
(lp14
I100
aI100
asS'Chromosome'
p15
S'chr10'
p16
sS'tBaseInserts'
p17
I0
sS'genomicFlats'
p18
(lp19
(lp20
I79807359
aI79807459
aa(lp21
I79807840
aI79807940
aasS'deletionSequences'
p22
(dp23
S'>chr10(+):79807459-79807839'
p24
S'GTCTAACCCGGACAGTGAGTGACCCACGTTCATAATTCTGACCTGAGTCCCGATTCTAACTTTGCCCTACCCAACCATAACTCTACCTCAATTCTGAGCCGCTTCCCTGCCACCTTAGTCCAAGGCACTGAGGGAACGCTGGCTGCTGGAGGGGACACCATCCTCAGCCTCAGAGGGCGACGAGGACATGAGGAAACAGATGCAGGAGGATGAGCAGAAAGCCCGGGGCCTGGAGGAATCCATCACCAGGTGAGCATTAGGGAAGGGGGCCTGTCCAGGTGACATGATGGGGGAGTCCAGATGGATGGGTCAGAAATGGGCAGGTGTCACAGTGTGGAGCTTTCCATGTGTCTCAGAAAGAATCACACGGTGCACAGCCTC'
p25
ssS'tEnd'
p26
S'79807940'
p27
sS'DelGenomicSeqs'
p28
(dp29
S'chr10(+):79807840-79807940'
p30
(dp31
S'Genomic'
p32
S'CAGCTACAACCTAGCGTTCCTCCCCTGTGACATCCCTACACAGGAGCAGGTGTGAGGAGGCCTGGGCAAGCAGAAGTCTCGAAGGAAGGGAAGGACCGTC'
p33
sS'Del'
p34
S'CAGCTACAACCTAGCGTTCCTCCCCTGTGACATCCCTACACAGGAGCAGGTGTGAGGAGGCCTGGGCAAGCAGAAGTCTCGAAGGAAGGGAAGGACCGTC'
p35
ssS'chr10(+):79807359-79807459'
p36
(dp37
g32
S'GGTGGGTCTGTGAAGTTCTATGTGGAGCCTGCATGGGACTACTGGCATATGTGACCTGGGGATGGGGCTAAAGTCACTGTAATCTCAGTTATGTCCTCCA'
p38
sg34
S'GGTGGGTCTGTGAAGTTCTATGTGGAGCCTGCATGGGACTACTGGCATATGTGACCTGGGGATGGGGCTAAAGTCACTGTAATCTCAGTTATGTCCTCCA'
p39
sssS'tCuts'
p40
(lp41
S'79807359'
p42
aS'79807840'
p43
asS'tStrand'
p44
S'+'
sS'NumMisMatches'
p45
I200
sS'tStart'
p46
S'79807359'
p47
sS'percentCoverage'
p48
F1
sS'qStart'
p49
I0
sS'QuerySequence'
p50
S'GGTGGGTCTGTGAAGTTCTATGTGGAGCCTGCATGGGACTACTGGCATATGTGACCTGGGGATGGGGCTAAAGTCACTGTAATCTCAGTTATGTCCTCCACAGCTACAACCTAGCGTTCCTCCCCTGTGACATCCCTACACAGGAGCAGGTGTGAGGAGGCCTGGGCAAGCAGAAGTCTCGAAGGAAGGGAAGGACCGTC'
p51
sS'QCPass'
p52
I01
sb.