(iDELclass
BlatInfo
p1
(dp2
S'qBaseInserts'
p3
I906
sS'deletions'
p4
(lp5
(lp6
I70797385
aI70798290
aasS'qEnd'
p7
I371
sS'name'
p8
S'HAdamts16DEL906EM2B6N_Adamts16_15418_Adamts16'
p9
sS'querySize'
p10
I371
sS'qCuts'
p11
(lp12
I0
aI137
asS'qBlocks'
p13
(lp14
I137
aI234
asS'Chromosome'
p15
S'chr13'
p16
sS'tBaseInserts'
p17
I0
sS'genomicFlats'
p18
(lp19
(lp20
I70798291
aI70798428
aa(lp21
I70797151
aI70797385
aasS'deletionSequences'
p22
(dp23
S'>chr13(-):70797385-70798290'
p24
S'CAAATGAGGAAAGAAACACACATTGTCatatgcacagagagacatacatacaaatacacacatgaacaagcatacaaattaacatatacatataatgtacacaAGGACACATGGTCACGTAAACACAcacaccatacacagacagacacacatgcacagatatatacaagcagatgcacacttgcatgcacacacacaagcacacacacaGGCAGACACATAGTGGGACACACAGTGGCACATGCACATATACACACCGGTGCAcacacatagagagacacacacagacacaaacacacgtgcttacatgcacacacacaggtacacacacacaggtacacacacacAGAGGCACACACATACATAAATTCATGTGCTTAAacacacacacacacacacacacactcaggtgcacacacacacacacacacacacacaaacaTCAGCCCTACCATGTTGAGAATGGTGAGGACATAAGTCGTAATGTTTTCATGGCCATGGCTTTGCATCATCTTTCTGTCAACCACCACCAGTGTCTCCACATTTAACTCTTCATTTCTGTGGGATTTCAAGAGCGAGCGCTTGTGTCGGGAACTAGGCTTGTACTCATCAGGCAAGATGTAGAGGTCATCGTTGGGAGGCTGAGGCATGTCTATGGAGGAACATGTAGAGAGCAAGCTAATGCAAACACACAAAACCAGAGGCATAGCTGATTCTACAGAAGTGTCTGAGAAAGGAATGCTCATGTTGAGTAAGGTGATCCTGAATTTAATGACAGCTTGGGCTACATAAAGACAGCGAAGCATGGCAATAGGGTTCCCATGTTAGAAGAAGAGAGACCTGCCCAGCTTTTGGGATACAAGACATGTTTTAGTCACCTTCTCTATTTATATGATGCTCGTACAA'
p25
ssS'tEnd'
p26
S'70798428'
p27
sS'DelGenomicSeqs'
p28
(dp29
S'chr13(-):70798291-70798428'
p30
(dp31
S'Genomic'
p32
S'GAGTCCTGCTCTGCAAGTCCCCATGCCCTTGCTCCTAGGATGCTCATTTTAGATGCTAGGGTTCATTTCTCATTTTAAATCAGGACAAAAGAATGCGAAGTTAGTTCTGGAAATGGTCTGTTTCCAAGACATCCAGA'
p33
sS'Del'
p34
S'GAGTCCTGCTCTGCAAGTCCCCATGCCCTTGCTCCTAGGATGCTCATTTTAGATGCTAGGGTTCATTTCTCATTTTAAATCAGGACAAAAGAATGCGAAGTTAGTTCTGGAAATGGTCTGTTTCCAAGACATCCAGA'
p35
ssS'chr13(-):70797151-70797385'
p36
(dp37
g32
S'TGTAGCTGAGTCTTAGTATAAGAAACTCATTTTACTAATTTCCAATCAAAAGGTGAATTTTTAGAATGTTGGAGAATGAAATAGGGAGAAACTAATTAGATCATCATTGCAACTTAATTTGTTTCTGAGACATTTAGGGCTCACTGATATCTTCACACACTAGAAATCTCATTGGGATATTGATACACTTTGATGCAACAAAACTTTATCAGATTAACATACAATGTGAGGTGC'
p38
sg34
S'TGTAGCTGAGTCTTAGTATAAGAAACTCATTTTACTAATTTCCAATCAAAAGGTGAATTTTTAGAATGTTGGAGAATGAAATAGGGAGAAACTAATTAGATCATCATTGCAACTTAATTTGTTTCTGAGACATTTAGGGCTCACTGATATCTTCACACACTAGAAATCTCATTGGGATATTGATACACTTTGATGCAACAAAACTTTATCAGATTAACATACAATGTGAGGTGC'
p39
sssS'tCuts'
p40
(lp41
S'70798291'
p42
aS'70797151'
p43
asS'tStrand'
p44
S'-'
sS'NumMisMatches'
p45
I371
sS'tStart'
p46
S'70797151'
p47
sS'percentCoverage'
p48
F1
sS'qStart'
p49
I0
sS'QuerySequence'
p50
S'GAGTCCTGCTCTGCAAGTCCCCATGCCCTTGCTCCTAGGATGCTCATTTTAGATGCTAGGGTTCATTTCTCATTTTAAATCAGGACAAAAGAATGCGAAGTTAGTTCTGGAAATGGTCTGTTTCCAAGACATCCAGATGTAGCTGAGTCTTAGTATAAGAAACTCATTTTACTAATTTCCAATCAAAAGGTGAATTTTTAGAATGTTGGAGAATGAAATAGGGAGAAACTAATTAGATCATCATTGCAACTTAATTTGTTTCTGAGACATTTAGGGCTCACTGATATCTTCACACACTAGAAATCTCATTGGGATATTGATACACTTTGATGCAACAAAACTTTATCAGATTAACATACAATGTGAGGTGC'
p51
sS'QCPass'
p52
I01
sb.