(iDELclass
BlatInfo
p1
(dp2
S'qBaseInserts'
p3
I1724
sS'deletions'
p4
(lp5
(lp6
I67830350
aI67832073
aasS'qEnd'
p7
I473
sS'name'
p8
S'HC2CD4ADEL1724EM1B6N_C2cd4a_15423_C2cd4a'
p9
sS'querySize'
p10
I473
sS'qCuts'
p11
(lp12
I0
aI283
asS'qBlocks'
p13
(lp14
I283
aI190
asS'Chromosome'
p15
S'chr9'
p16
sS'tBaseInserts'
p17
I0
sS'genomicFlats'
p18
(lp19
(lp20
I67832074
aI67832357
aa(lp21
I67830160
aI67830350
aasS'deletionSequences'
p22
(dp23
S'>chr9(-):67830350-67832073'
p24
S'GTTGGAATGTGTGAACAGATTAAATACAATTGCTGCCTACAGTGGGGAACACTGCTCAACACTACCCCATTGCACAACAGAAATTTCAAGGTGTCTGCCCACACAAAAAGAAGCGACGTATATTACTATAATAATTTAGGATTAGCTCTGCCAGAATTGGACTGAAACAAAGCCCTGGCTAGAAAAATGAACACATGTTTATTTTGTACAAATGGCTGTCAGTCATTGTCCAAGAGCCAAGAGGCTGAGAGTGTGCCAGGACCAAAACCTAAGAGTGTCTCAGGGCCAAGAAGCTGCAAGTGTTCCAGGACCAAGAGGAGGCTACAAGTGTCTCTGGGCCAAGAGTCTCTGTGCATCTCATGGCCAAGCGACCTTAGGTGTCCAGGGCTCCAGGGAAGCCGCGCTCATAGCAGTAGCAGAGAGCCCAGCAGCAGCTCGCCCTGGCCCAGCCGCCGTCCCTTGCTCTCCGCCTTGATGCGCACGGCCAGGCGGCGCAGCTGCTCCTCCGGGAGCCGGTCAAAGCAGCAGTCCTGGTCCAGGGCGGCCTTGCGGCTGCGGCGGACCACACTGGCACGCTGCTGGCCCGACGGCCTCAGCACCAGGCTGAGGCGGCAGCCCAGGGCGCGGGGTTCCAGCGCGGCGGCCGGGCCCTCAGCGCGCAGCAGGCGGAGGCGGAGGCAGGCGCTGCGCGGACAGTATTCGGCCGCCAGGCGCAGCGTGCAACCCCCGCGGCCCAGAGCCACGCTGGCTTCAGCTTGCAGGCGCTCGGGATCCGGGCTGCTGGGGACCGGGGGCGCGCAGGAGGCGGCGCGCTCGTGCTCGTCGCCGCGGCACGGGGGGCGCGCGCTGGCCAGACGTCGAGGGGCTCGAAGTGCGCGGCTCAGCAGCTTGCCCGGGGAGCGTAGGAGGCGGCGTCTGCTGGGAGCAGGAGTGGGCGTCGGGACCCGGGCAGCGTCTGGGTCGCCCGGGGCAGGGCGCGGAGCGTCCGGGACTCGGCGGGGGCTCGCGTAGGTGTGCGTGCGGTGGCGAAGCCCAGGCCGGCGGACCGGGACACCTGGGTGGCCGAGGAAGAGCGACTCCTTTCGGCGCGTGTGCGGGCTCTCGAGCAGCGCGCAGAAGCCGTAAGCGGTGCGCGCGCGGGGTAGGTGCGGCAGCGAGAGCGCAGCCTGGGAGCGCGGGTCCCAGTCTGTGCGGCCCGCGCCGTCGTCGGCCTCCGTGTCTGCAGCCCAGGCTTCGCGCAGCGCAGCCCAGGCCGTGCTAGGTTCCAGCCTCGGCGGGATGAAGAACTCTGGGATGCGGTCTGGAGTGAGCACGTTTGCGCACGCAGCGGATGAGCGAGCTTTGGAGCGGTGGACGCGCCCCGGGAGAAACCCATCTCGGTCCCGCAAGAGCCGCTCCAGACACCACATCTGGCCGCTAGTGTCTGAACCCTGTGATCCTGTTCCAGGCTGCCTGCAACACATAAACACATACCAGTCAGAGACAGTCTGGAGGAAAGCAGGAATTTCTGTCTCTTTTCTTTGACATCGTCCTGTCCTGAGCCTTACAAGACAAAATGCATCCCTCACCACAATTACAAACTGTTTTTACAGATTGAAAAACAATCGTATATCGCCCACCCTGTCTCTAGTCAGATGCCAGGTAGATTTGCAGTTTGCTTCAGTCTTTTCCGTCCTACCTCTTTACCTTTGTCTTCTAACTTGCGCCTCTGTCCCTAGTTCCAA'
p25
ssS'tEnd'
p26
S'67832357'
p27
sS'DelGenomicSeqs'
p28
(dp29
S'chr9(-):67832074-67832357'
p30
(dp31
S'Genomic'
p32
S'AAAAGCCCGGACCAGCTATCCTGGAACATCAGGAATCAACTCTGCCGCGCTCTTTTGAATTTCTCCGCGTTTCTCCGGGTTGGAAAACCATCTGACTCTGAATACCAGGTATATGAATGGGAATCCAGTTCCCTCCTGGGTGTTAGACCCAGGTGGCCCGAAGCTCTCTAGAAGGAGAAACCATTTCTGGGGTGTGTGTGTGTGTTCTCGCGCAGAACTAGAGTGTACTAGACACTTAAGGTTTCAGGAAATGAGTGCACAAATGATCAAAGCAAAGCGCCTC'
p33
sS'Del'
p34
S'AAAAGCCCGGACCAGCTATCCTGGAACATCAGGAATCAACTCTGCCGCGCTCTTTTGAATTTCTCCGCGTTTCTCCGGGTTGGAAAACCATCTGACTCTGAATACCAGGTATATGAATGGGAATCCAGTTCCCTCCTGGGTGTTAGACCCAGGTGGCCCGAAGCTCTCTAGAAGGAGAAACCATTTCTGGGGTGTGTGTGTGTGTTCTCGCGCAGAACTAGAGTGTACTAGACACTTAAGGTTTCAGGAAATGAGTGCACAAATGATCAAAGCAAAGCGCCTC'
p35
ssS'chr9(-):67830160-67830350'
p36
(dp37
g32
S'TGGAAAATAGTTACTGTCGATGTCAGACCAGCCTCGTTTTTAAAGTTCATTTATTCCATGGCGTCCTTTGAGACTGATAGTGTCAGTTACTTACGATGCATTAAGATGTTACATAAGAAAGGCCAGTGTctagtaacattgatgaatgggtaaaggtgcttgccaccaggcctcatggccataattggaa'
p38
sg34
S'TGGAAAATAGTTACTGTCGATGTCAGACCAGCCTCGTTTTTAAAGTTCATTTATTCCATGGCGTCCTTTGAGACTGATAGTGTCAGTTACTTACGATGCATTAAGATGTTACATAAGAAAGGCCAGTGTCTAGTAACATTGATGAATGGGTAAAGGTGCTTGCCACCAGGCCTCATGGCCATAATTGGAA'
p39
sssS'tCuts'
p40
(lp41
S'67832074'
p42
aS'67830160'
p43
asS'tStrand'
p44
S'-'
sS'NumMisMatches'
p45
I473
sS'tStart'
p46
S'67830160'
p47
sS'percentCoverage'
p48
F1
sS'qStart'
p49
I0
sS'QuerySequence'
p50
S'AAAAGCCCGGACCAGCTATCCTGGAACATCAGGAATCAACTCTGCCGCGCTCTTTTGAATTTCTCCGCGTTTCTCCGGGTTGGAAAACCATCTGACTCTGAATACCAGGTATATGAATGGGAATCCAGTTCCCTCCTGGGTGTTAGACCCAGGTGGCCCGAAGCTCTCTAGAAGGAGAAACCATTTCTGGGGTGTGTGTGTGTGTTCTCGCGCAGAACTAGAGTGTACTAGACACTTAAGGTTTCAGGAAATGAGTGCACAAATGATCAAAGCAAAGCGCCTCTGGAAAATAGTTACTGTCGATGTCAGACCAGCCTCGTTTTTAAAGTTCATTTATTCCATGGCGTCCTTTGAGACTGATAGTGTCAGTTACTTACGATGCATTAAGATGTTACATAAGAAAGGCCAGTGTCTAGTAACATTGATGAATGGGTAAAGGTGCTTGCCACCAGGCCTCATGGCCATAATTGGAA'
p51
sS'QCPass'
p52
I01
sb.