(iDELclass
BlatInfo
p1
(dp2
S'qBaseInserts'
p3
I694
sS'deletions'
p4
(lp5
(lp6
I143368132
aI143368825
aasS'qEnd'
p7
I460
sS'name'
p8
S'HChrdl1DEL694EM1B6N_Chrdl1_14457_Chrdl1'
p9
sS'querySize'
p10
I460
sS'qCuts'
p11
(lp12
I0
aI227
asS'qBlocks'
p13
(lp14
I227
aI233
asS'Chromosome'
p15
S'chrX'
p16
sS'tBaseInserts'
p17
I0
sS'genomicFlats'
p18
(lp19
(lp20
I143368826
aI143369053
aa(lp21
I143367899
aI143368132
aasS'deletionSequences'
p22
(dp23
S'>chrX(-):143368132-143368825'
p24
S'CTTTCTTTAATGCGGACCTTAAATTTGCTATCTAACCAAGAATTTTTTTATCAAGTATTACTGATTCTCCTACCTGTACCTCATGTGCCATGTCACCTGGGTGCTTACCAATATTTCTTGTGACTGTAATCACCTAGGCTCTCTGGCCAAATGAGCATTGATAACCTCCCCATGTGCTAAGGAGTGAAGAAAGAAATCTCATGTCATAAAGTAATGTACCTCAGAGCAGATGCAGTTCACACAGTAAACCAGTCCATACGGTTCCAGGTAGGGATGCCATTTCTCACCCACTCTATACTTCTTGTCTTGAAACACGCAATATGTGTCTGAGTCTATTACAGGGGAGGGCGGGGAGAGGAGAACACAGTGTTAGAAAATATAGGCCAAGTTACAAAATTCAAAGGCAATCATGGGTTCTACCCATTGTACTTTGTACATCAAAGGAAGAGTCATTGCATTTGTAGAGCACCTACTGCTGGTTCAGTGTTTTATGTATTTTTTCTTACCTCATTTTTGCAATAACGCATAAAGGGAATATGACTATTGATCTTATTTTATGAATAAAGGAAGTCAAGAGACATAGTACTAGCAAGCAGCTGAGATGATACTGAAACCCAGGTTGATCTGATAGTGGAGCTCTAAATCTTACTTACAGCTCTGTTATAATAGCAATACAAGAAAACCTATCACTGGC'
p25
ssS'tEnd'
p26
S'143369053'
p27
sS'DelGenomicSeqs'
p28
(dp29
S'chrX(-):143367899-143368132'
p30
(dp31
S'Genomic'
p32
S'GGGCACAGGGCATAGAGGATAGATTGGAAAGAGTATCTCTCCTGATTTATTTTCTGTTAAAGTTTGGTTTGTTTTCCTTAACATCTGTAAATATTTACTATAAATAAATTTCTATGGGCTTTTAAGCTAATTATATAGGACATAATAGGAGAATGTAGGAGAATCAGATAGTAGAAACATTGATCTTTTCTCTAGATGATAGTAGAAGCAACCCCAGGTGCGGCAACAAATAA'
p33
sS'Del'
p34
S'GGGCACAGGGCATAGAGGATAGATTGGAAAGAGTATCTCTCCTGATTTATTTTCTGTTAAAGTTTGGTTTGTTTTCCTTAACATCTGTAAATATTTACTATAAATAAATTTCTATGGGCTTTTAAGCTAATTATATAGGACATAATAGGAGAATGTAGGAGAATCAGATAGTAGAAACATTGATCTTTTCTCTAGATGATAGTAGAAGCAACCCCAGGTGCGGCAACAAATAA'
p35
ssS'chrX(-):143368826-143369053'
p36
(dp37
g32
S'gccacattggtgccatgaattgaatccaagttctctggaagacaggaagtactcttaacttttaaggaatatctccagcccTATAAAAAATATTCCAACAAAAGGAAGTTATGATTTGAGCAAACTGAAGATTGTTCATGCTCAAGAAAATCTGTATGTTAAATGGAAGCAAAGTGTTCATTATTTTACCTTTGAAAAGGAAGTATGTCCTTTTTAGAAACCAAAAG'
p38
sg34
S'GCCACATTGGTGCCATGAATTGAATCCAAGTTCTCTGGAAGACAGGAAGTACTCTTAACTTTTAAGGAATATCTCCAGCCCTATAAAAAATATTCCAACAAAAGGAAGTTATGATTTGAGCAAACTGAAGATTGTTCATGCTCAAGAAAATCTGTATGTTAAATGGAAGCAAAGTGTTCATTATTTTACCTTTGAAAAGGAAGTATGTCCTTTTTAGAAACCAAAAG'
p39
sssS'tCuts'
p40
(lp41
S'143368826'
p42
aS'143367899'
p43
asS'tStrand'
p44
S'-'
sS'NumMisMatches'
p45
I460
sS'tStart'
p46
S'143367899'
p47
sS'percentCoverage'
p48
F1
sS'qStart'
p49
I0
sS'QuerySequence'
p50
S'GCCACATTGGTGCCATGAATTGAATCCAAGTTCTCTGGAAGACAGGAAGTACTCTTAACTTTTAAGGAATATCTCCAGCCCTATAAAAAATATTCCAACAAAAGGAAGTTATGATTTGAGCAAACTGAAGATTGTTCATGCTCAAGAAAATCTGTATGTTAAATGGAAGCAAAGTGTTCATTATTTTACCTTTGAAAAGGAAGTATGTCCTTTTTAGAAACCAAAAGGGGCACAGGGCATAGAGGATAGATTGGAAAGAGTATCTCTCCTGATTTATTTTCTGTTAAAGTTTGGTTTGTTTTCCTTAACATCTGTAAATATTTACTATAAATAAATTTCTATGGGCTTTTAAGCTAATTATATAGGACATAATAGGAGAATGTAGGAGAATCAGATAGTAGAAACATTGATCTTTTCTCTAGATGATAGTAGAAGCAACCCCAGGTGCGGCAACAAATAA'
p51
sS'QCPass'
p52
I01
sb.