(iDELclass
BlatInfo
p1
(dp2
S'qBaseInserts'
p3
I684
sS'deletions'
p4
(lp5
(lp6
I55216362
aI55217045
aasS'qEnd'
p7
I542
sS'name'
p8
S'HFAM188BDEL684EM1B6N_Fam188b_16335_Fam188b'
p9
sS'querySize'
p10
I542
sS'qCuts'
p11
(lp12
I0
aI325
asS'qBlocks'
p13
(lp14
I325
aI217
asS'Chromosome'
p15
S'chr6'
p16
sS'tBaseInserts'
p17
I0
sS'genomicFlats'
p18
(lp19
(lp20
I55216037
aI55216362
aa(lp21
I55217046
aI55217263
aasS'deletionSequences'
p22
(dp23
S'>chr6(+):55216362-55217045'
p24
S'gtgcctggcacatagactaagtaagtgtgtgtgtggcgtgagtgaaAAGCTGGTAAAATATGTCAAAGGGTTGGGATAATCTTTACACTCGCCCCCAAATGCTGTGCATTCAATTAATGGTATTTTTTTCCTTCCCAATGATAGGCAAAAGAAAAGCCTCTAAGAACAAACCTGGAGCTCATTACCAGGTACTTTCTGGATAATGTTGGAAATACAGATAACAGTGAAAGTCAAGAAGTCCCAATCCCTGCAATCCCTGTTCCAAAGAAAAACAACAAGTTGCCTTTGAGACACTCAGAGACCACATTGGTGAATATATACGACCTTTCAGATGAAGATACGGGAAGACGGACATCATGGTCAGAAGCAGGCAAAGCCAGGTACCCACCTCCTCCACTTCCTCTCCACTCTGCCTACACCAGCCCGGCCAGGCAAGGCTCCCCTTTACAAACATGGCCCTGTTTTTCCTCACTTCTTGCTcttcctccctccctctccccctccctccctgcctccctccccccctctctccctccctccctccctccctctctTTCTTTTGCAATTCAGGTCTGATTTCTATGTTACTCTTAAAGACTTTGTACTCTTAAAAGACTGGACTCAGACTTCAAAGTAGAAAAGTAGATGCCCTTAATGACGAAAGCCTAAGTCTCTTGACAATCC'
p25
ssS'tEnd'
p26
S'55217263'
p27
sS'DelGenomicSeqs'
p28
(dp29
S'chr6(+):55216037-55216362'
p30
(dp31
S'Genomic'
p32
S'ATGCTCAGGCCCCAAATGTATCTTGGATCTATAGAGGCCAGAAAGatggtagaaggagagaattggctatttcaagttgtctcttgatctccacacacatgtggtTTTCAGCTTCTTCCCACTCAATAAATGAGTATAATTCAAAATTAAATTAAAACAGTATTTTTTTAAATGAAAGGATTTATCTCTTGCAGTTGTTTACAGAGGGAAAGGATGCAAAAGGAGATTAACTTGGACAGTCCTCTTTTTGACTCACAGTGcacaagatagtggttctttcagagtggaggcttttgtctttctttctgaatccctacccagtacg'
p33
sS'Del'
p34
S'Atgctcaggccccaaatgtatcttggatctatagaggccagaaagatggtagaaggagagaattggctatttcaagttgtctcttgatctccacacacatgtggttttcagcttcttcccactcaataaatgagtataattcaaaattaaattaaaacagtatttttttaaatgaaaggatttatctcttgcagttgtttacagagggaaaggatgcaaaaggagattaacttggacagtcctctttttgactcacagtgcacaagatagtggttctttcagagtggaggcttttgtctttctttctgaatccctacccagtacg'
p35
ssS'chr6(+):55217046-55217263'
p36
(dp37
g32
S'GTTTTTGGTCTTTTTCTCTGGCTTCCTTTATTCTCTTGGGCACAAGTTTAGCATATTTTTCAGCCTCTCTTCATTTTCCTTAGTACGTTGTTTCTTCAGAGCAATGCGCTGGCATCTGTGTTCCTGGCCGTGTGGAGTGTTGACTTCTGGGTGCTGTGGTCCTGAGCTTCGTACTTTAAGGGCTTTGTGACAGCGCACTGGGGGACATCAGCATCTG'
p38
sg34
S'gtttttggtctttttctctggcttcctttattctcttgggcacaagtttagcatatttttcagcctctcttcattttccttagtacgttgtttcttcagagcaatgcgctggcatctgtgttcctggccgtgtggagtgttgacttctgggtgctgtggtcctgagcttcgtactttaagggctttgtgacagcgcactgggggacatcagcatctg'
p39
sssS'tCuts'
p40
(lp41
S'55216037'
p42
aS'55217046'
p43
asS'tStrand'
p44
S'+'
sS'NumMisMatches'
p45
I542
sS'tStart'
p46
S'55216037'
p47
sS'percentCoverage'
p48
F1
sS'qStart'
p49
I0
sS'QuerySequence'
p50
S'Atgctcaggccccaaatgtatcttggatctatagaggccagaaagatggtagaaggagagaattggctatttcaagttgtctcttgatctccacacacatgtggttttcagcttcttcccactcaataaatgagtataattcaaaattaaattaaaacagtatttttttaaatgaaaggatttatctcttgcagttgtttacagagggaaaggatgcaaaaggagattaacttggacagtcctctttttgactcacagtgcacaagatagtggttctttcagagtggaggcttttgtctttctttctgaatccctacccagtacggtttttggtctttttctctggcttcctttattctcttgggcacaagtttagcatatttttcagcctctcttcattttccttagtacgttgtttcttcagagcaatgcgctggcatctgtgttcctggccgtgtggagtgttgacttctgggtgctgtggtcctgagcttcgtactttaagggctttgtgacagcgcactgggggacatcagcatctg'
p51
sS'QCPass'
p52
I01
sb.