(iDELclass
BlatInfo
p1
(dp2
S'qBaseInserts'
p3
I483
sS'deletions'
p4
(lp5
(lp6
I65879752
aI65880234
aasS'qEnd'
p7
I179
sS'name'
p8
S'HGrpDEL483INS5EM2B6N_Grp_15098_Grp'
p9
sS'querySize'
p10
I179
sS'qCuts'
p11
(lp12
I0
aI76
asS'qBlocks'
p13
(lp14
I71
aI103
asS'Chromosome'
p15
S'chr18'
p16
sS'tBaseInserts'
p17
I5
sS'genomicFlats'
p18
(lp19
(lp20
I65879681
aI65879752
aa(lp21
I65880235
aI65880338
aasS'deletionSequences'
p22
(dp23
S'>chr18(+):65879752-65880234'
p24
S'TGTTGTGTATAGCCCAACTCTTAATAGTAAAATAATGCTGTTTATTTTGCATTTACTGGGCAGTCGTGTTCACCGCACAGGTCTCTGTTTCAGTTGCTCCTTCTTCTGTTCCCCTCCGTTGGATTTGTAGCATCCCGGGTTTGTTCTGCGTTCACAGGACACTTAATGGGAAAAAAGAGCACGGATGAATCCCCGTCCCTGTATGCGGCTGACAGAGACGGCCTGAAGGAGCAGCTGAGGGGGTACGTCCGCTGGGAAGAAGCTGCAAGGGATTTGCTGGACCTCCTAGAAGCTGCTGGGAACCAAAGCCACCAGCCACCTCAGCATCCGCCTCTCAGTCTCCAGCCTACTTGGGATCCCGAGGACGGCAGCTACTTTAACGACGTTCAAACCGCTAAGGTGAAACAAGCACGCTTCAGATGAGGGGTGGGAGGTATTCAGAAAGAGTTCAGGGGGCAGGGGTGTTGATCAGGGGAACGTGAA'
p25
ssS'tEnd'
p26
S'65880338'
p27
sS'DelGenomicSeqs'
p28
(dp29
S'chr18(+):65880235-65880338'
p30
(dp31
S'Genomic'
p32
S'GTGATTATGACAtgtattgatcacctttcccatcgctgtacaaaatacctgaccaaaagcaatgtaagaaaaaggtggatttatcgcagctcacagtctgaag'
p33
sS'Del'
p34
S'GTGATTATGACATGTATTGATCACCTTTCCCATCGCTGTACAAAATACCTGACCAAAAGCAATGTAAGAAAAAGGTGGATTTATCGCAGCTCACAGTCTGAAG'
p35
ssS'chr18(+):65879681-65879752'
p36
(dp37
g32
S'cccctgagtcacaTGCAGATCTGAATTTGATTTAGTTCACTCCATCTTTTGGATTGATAGCAGAGCCCATG'
p38
sg34
S'CCCCTGAGTCACATGCAGATCTGAATTTGATTTAGTTCACTCCATCTTTTGGATTGATAGCAGAGCCCATG'
p39
sssS'tCuts'
p40
(lp41
S'65879681'
p42
aS'65880235'
p43
asS'tStrand'
p44
S'+'
sS'NumMisMatches'
p45
I174
sS'tStart'
p46
S'65879681'
p47
sS'percentCoverage'
p48
F1
sS'qStart'
p49
I0
sS'QuerySequence'
p50
S'CCCCTGAGTCACATGCAGATCTGAATTTGATTTAGTTCACTCCATCTTTTGGATTGATAGCAGAGCCCATGATTATGTGATTATGACATGTATTGATCACCTTTCCCATCGCTGTACAAAATACCTGACCAAAAGCAATGTAAGAAAAAGGTGGATTTATCGCAGCTCACAGTCTGAAG'
p51
sS'QCPass'
p52
I01
sb.