(iDELclass
BlatInfo
p1
(dp2
S'qBaseInserts'
p3
I635
sS'deletions'
p4
(lp5
(lp6
I78432757
aI78433391
aasS'qEnd'
p7
I301
sS'name'
p8
S'HKCTD17DEL635EM1B6N_Kctd17_15435_Kctd17'
p9
sS'querySize'
p10
I301
sS'qCuts'
p11
(lp12
I0
aI85
asS'qBlocks'
p13
(lp14
I85
aI216
asS'Chromosome'
p15
S'chr15'
p16
sS'tBaseInserts'
p17
I0
sS'genomicFlats'
p18
(lp19
(lp20
I78432672
aI78432757
aa(lp21
I78433392
aI78433608
aasS'deletionSequences'
p22
(dp23
S'>chr15(+):78432757-78433391'
p24
S'cacactcatggtttgtctggcactggggatcgaacccagggctttgtgagtgctagtcagctcctctacccactgagcaaatccctaggccTGAAATGTCAACTCTTTCTTGACCCTTGAACTCATGGACCCTTACGTGCCCAAGTGACTAGAGCAGGAAGTAGGTCTGGGGACAAGGAGAACAAGCCTGGGGACAGTAAAGGTGACTGTATTGCTCTGTGCCCCAGGGGTCCTGGAGGAAGCAGAGTTCTACAACATTGGTCCTCTGATTCGAATCATCAAAGACAGGATGGAGGAGAAAGACTACACAGTGGCCCAGGTTTGGAGAGAGGAAGCAGGGCCAGTGGAgggagggggaggggatgaagggagggggagggggaggggAATGATGGGTGAGGGAGAGGCCGAGCTGCCTGACAAGGGAGGCCTCCCAGACTGCTTAGCACAGCCCCAGCCTGGCTCTACACTGCTGGGGTTTTACCTCTGCCTGGCTTCTGCTGTGTGTGACCAAGGGTTATCATGCCCTTGTCTTCCTCTATGGGAAGCAGAGATGCTCAGAGTTGCCTAGCTACCCATGCTCACAAGATGGTATCAGTAGCAGCCCAGCCCCCCACACACACCCGGCCACACAG'
p25
ssS'tEnd'
p26
S'78433608'
p27
sS'DelGenomicSeqs'
p28
(dp29
S'chr15(+):78432672-78432757'
p30
(dp31
S'Genomic'
p32
S'caaacttcttacgtaggcaaggatgtccttgaacttttggtactcctgcttctacccaccatgtgctaggattacaagggtttgt'
p33
sS'Del'
p34
S'CAAACTTCTTACGTAGGCAAGGATGTCCTTGAACTTTTGGTACTCCTGCTTCTACCCACCATGTGCTAGGATTACAAGGGTTTGT'
p35
ssS'chr15(+):78433392-78433608'
p36
(dp37
g32
S'CATGGGTAAATATCCACTTCATGGAATCAGGCCATCCCCGGGTAGGTACTCACTCAGGGCTAGCATTTCAGAGCTCAGGCCTCAGGCCTTTGAGGGATGGGGTGAGACATCACCTCCCAGCCACGGGGACTAAGGAGGTGAGGGCCTGACTCCACTGATAACCCAGAATGTCTCCTGTCTTCAATCTTGTGCCACCCATATTCCACACGtggctct'
p38
sg34
S'CATGGGTAAATATCCACTTCATGGAATCAGGCCATCCCCGGGTAGGTACTCACTCAGGGCTAGCATTTCAGAGCTCAGGCCTCAGGCCTTTGAGGGATGGGGTGAGACATCACCTCCCAGCCACGGGGACTAAGGAGGTGAGGGCCTGACTCCACTGATAACCCAGAATGTCTCCTGTCTTCAATCTTGTGCCACCCATATTCCACACGTGGCTCT'
p39
sssS'tCuts'
p40
(lp41
S'78432672'
p42
aS'78433392'
p43
asS'tStrand'
p44
S'+'
sS'NumMisMatches'
p45
I301
sS'tStart'
p46
S'78432672'
p47
sS'percentCoverage'
p48
F1
sS'qStart'
p49
I0
sS'QuerySequence'
p50
S'CAAACTTCTTACGTAGGCAAGGATGTCCTTGAACTTTTGGTACTCCTGCTTCTACCCACCATGTGCTAGGATTACAAGGGTTTGTCATGGGTAAATATCCACTTCATGGAATCAGGCCATCCCCGGGTAGGTACTCACTCAGGGCTAGCATTTCAGAGCTCAGGCCTCAGGCCTTTGAGGGATGGGGTGAGACATCACCTCCCAGCCACGGGGACTAAGGAGGTGAGGGCCTGACTCCACTGATAACCCAGAATGTCTCCTGTCTTCAATCTTGTGCCACCCATATTCCACACGTGGCTCT'
p51
sS'QCPass'
p52
I01
sb.