(iDELclass
BlatInfo
p1
(dp2
S'qBaseInserts'
p3
I760
sS'deletions'
p4
(lp5
(lp6
I142535655
aI142536414
aasS'qEnd'
p7
I298
sS'name'
p8
S'HMRPL23DEL760EM1B6N_Mrpl23_15224_Mrpl23'
p9
sS'querySize'
p10
I298
sS'qCuts'
p11
(lp12
I0
aI212
asS'qBlocks'
p13
(lp14
I212
aI86
asS'Chromosome'
p15
S'chr7'
p16
sS'tBaseInserts'
p17
I0
sS'genomicFlats'
p18
(lp19
(lp20
I142535443
aI142535655
aa(lp21
I142536415
aI142536501
aasS'deletionSequences'
p22
(dp23
S'>chr7(+):142535655-142536414'
p24
S'ACATACACAGGAGCTTATGGTAGCCAGGGTTGTACTGAAAGCCACCATGGGCTTTGTCCCCCAAGTCCTAGAGAGGCCCCTCTGGCAGCACATGTCTCATAGACCCTAGGGGCGAGTCTTTAGTTACAGATAGGAGCCCAGCCTGGCGACAGGCCTGATATCTTACATTTGATCAGGGTGAGCCCACCTGGCTCCAGGTAATGGTCAAGGATCCAGGTGGAGAGGACCAAGTAAACAACTCTGATGAAATCCCACCCTCATTAACTCTTAGCTCATCCTTTTGTCTGGAGGGGACAACACTGGAGCCAGCCTCACCTGGCCACAGCTGCTCCTTGGACTTTCACCCTTATCCCTGGGTAGGATATCTCTTTATCTAGGCTTAGCTCAAACTTGTTTGCTTTCTGTCTCATCCAGGATGACCAGGGTGGACCTTCGGAATTACCTTGAGCAGATTTACAATGTTCCCGTGGCTGCCGTGCGCACACGGGTGCAGCATGGTGGGTACCTGTGTTGGTGGCTTGCCACCAGGACATAGCCCCTTGTCTACTTCTTGTTGTCTTCAGACTCCAGAGGGGAAGCAAAGGCCTTGAGGGGCTTGGGTGCCTTGTCTTGCCAGAGGGTGCCCAGCCTCTTTCTATGTAGCTCATTGAAGGTCCCCAACACTTCTAGCTGTGACCCTGAAATGTCCTCTGTTCCTTAGAACCACTTCCTTAGCCTGGGCTGGTCTCTAGTAGGCCTCCACAGTCTCCTCCTGTAGTAG'
p25
ssS'tEnd'
p26
S'142536501'
p27
sS'DelGenomicSeqs'
p28
(dp29
S'chr7(+):142536415-142536501'
p30
(dp31
S'Genomic'
p32
S'ATCCTAAAGTAGCCCATCAGTGGCAGATTGATTAGTGCCCAAGGCTGGCTAGTAGTGCTACCCTCTTAGAAATGCCCTTCCTAccg'
p33
sS'Del'
p34
S'ATCCTAAAGTAGCCCATCAGTGGCAGATTGATTAGTGCCCAAGGCTGGCTAGTAGTGCTACCCTCTTAGAAATGCCCTTCCTACCG'
p35
ssS'chr7(+):142535443-142535655'
p36
(dp37
g32
S'ATGCTGAGATTTGCAGGGCTTCTAGGATGTGAGCTCTGAGTCCCTTACCTCATTCTTCGCAGTTCCATGTGCCCCCTTTTAAGGAAGGTTCAGTGCAACCCAACTGCTTGTACTGCTCTGAGTCCTAAAATCCACAGGGACCAGCTCAGCAGGGGCAGGGGGCAGGAGCAGATCCCTGGAGGAGCTGGGTTAGGGTCTCTTTGGCTTTCCAG'
p38
sg34
S'ATGCTGAGATTTGCAGGGCTTCTAGGATGTGAGCTCTGAGTCCCTTACCTCATTCTTCGCAGTTCCATGTGCCCCCTTTTAAGGAAGGTTCAGTGCAACCCAACTGCTTGTACTGCTCTGAGTCCTAAAATCCACAGGGACCAGCTCAGCAGGGGCAGGGGGCAGGAGCAGATCCCTGGAGGAGCTGGGTTAGGGTCTCTTTGGCTTTCCAG'
p39
sssS'tCuts'
p40
(lp41
S'142535443'
p42
aS'142536415'
p43
asS'tStrand'
p44
S'+'
sS'NumMisMatches'
p45
I298
sS'tStart'
p46
S'142535443'
p47
sS'percentCoverage'
p48
F1
sS'qStart'
p49
I0
sS'QuerySequence'
p50
S'ATGCTGAGATTTGCAGGGCTTCTAGGATGTGAGCTCTGAGTCCCTTACCTCATTCTTCGCAGTTCCATGTGCCCCCTTTTAAGGAAGGTTCAGTGCAACCCAACTGCTTGTACTGCTCTGAGTCCTAAAATCCACAGGGACCAGCTCAGCAGGGGCAGGGGGCAGGAGCAGATCCCTGGAGGAGCTGGGTTAGGGTCTCTTTGGCTTTCCAGATCCTAAAGTAGCCCATCAGTGGCAGATTGATTAGTGCCCAAGGCTGGCTAGTAGTGCTACCCTCTTAGAAATGCCCTTCCTACCG'
p51
sS'QCPass'
p52
I01
sb.