(iDELclass
BlatInfo
p1
(dp2
S'qBaseInserts'
p3
I599
sS'deletions'
p4
(lp5
(lp6
I10439009
aI10439607
aasS'qEnd'
p7
I887
sS'name'
p8
S'HSyt7DEL599EM3B6N__Syt7_16141_Syt7'
p9
sS'querySize'
p10
I887
sS'qCuts'
p11
(lp12
I0
aI498
asS'qBlocks'
p13
(lp14
I498
aI389
asS'Chromosome'
p15
S'chr19'
p16
sS'tBaseInserts'
p17
I0
sS'genomicFlats'
p18
(lp19
(lp20
I10438511
aI10439009
aa(lp21
I10439608
aI10439997
aasS'deletionSequences'
p22
(dp23
S'>chr19(+):10439009-10439607'
p24
S'CACCACCCCAGCTGGCCACATGTTGCAATAAGGAGACATTGGCTAGCAGGCCTCCAGTCCAGACAGGTTTCTGGACCCTGACATGTTGCTTAGGAGCCTGGTAGACAGGATCCCCACCAACCCGCCATCTTTTCCCTTGCAGCTCTCCCCGGGTTCTGAGGAGGATGAGGCCCACGAGGGCTGCAGCCGAGAGAACCTGGGCCGAATCCAGTTCAGTGTTGGCTACAACTTCCAAGAGTCCACACTCACCGTGAAGGTCATGAAGGCCCAAGAGCTGCCAGCCAAGGACTTCAGCGGTACTAGTGACCCCTTTGTCAAGATCTACCTGCTACCCGACAAGAAGCACAAACTGGAGACCAAGGTGAAGCGGAAGAATCTAAACCCGCACTGGAATGAGACCTTTCTATTTGAAGGTGAGGCTGGTTGCTGCTCCCACTGATCCGTCCCGCCTGTGTGGCTGCAGTTTAGAAACATGGACAAACCCACGCCTGCGAGCGCACAGGCATGCAGGCATGTAAGATGCACACACACGCTAGACTCCCACGCGCACACACGCCTGTTGATTGGTCCCAGGAGATGAGAGAAGTCAACAAGCTGAC'
p25
ssS'tEnd'
p26
S'10439997'
p27
sS'DelGenomicSeqs'
p28
(dp29
S'chr19(+):10439608-10439997'
p30
(dp31
S'Genomic'
p32
S'CACAGGCTTTGAGGGGGGAGACTGTTACAGGCTAGGGTCCCACCTTATGACACTCAGAGGTACATTGCTCTGGAACAACCAGGTAAAGGGGCCCTACAGATCTAGAGAAAGTGCCAGAACCTTCCTGGACTCTTTCCTCCATCTTCATCCTCATCCTCCTCAGCCCTGGTctagtctgtctgaactggaacctcagatttcgtacttactggctgtgtgacattaagaaaaatcctaacctctctggtcctcagtttcttcatttataaaatagcagtaatgatggtaattaagcaaattagtaacttttcaaagcacatagagcaggccctgacacctaaaaggtgttGATATCAGCTCCTTGAAGATATGGTCTGTTGCTGGCCTTT'
p33
sS'Del'
p34
S'CACAGGCTTTGAGGGGGGAGACTGTTACAGGCTAGGGTCCCACCTTATGACACTCAGAGGTACATTGCTCTGGAACAACCAGGTAAAGGGGCCCTACAGATCTAGAGAAAGTGCCAGAACCTTCCTGGACTCTTTCCTCCATCTTCATCCTCATCCTCCTCAGCCCTGGTCTAGTCTGTCTGAACTGGAACCTCAGATTTCGTACTTACTGGCTGTGTGACATTAAGAAAAATCCTAACCTCTCTGGTCCTCAGTTTCTTCATTTATAAAATAGCAGTAATGATGGTAATTAAGCAAATTAGTAACTTTTCAAAGCACATAGAGCAGGCCCTGACACCTAAAAGGTGTTGATATCAGCTCCTTGAAGATATGGTCTGTTGCTGGCCTTT'
p35
ssS'chr19(+):10438511-10439009'
p36
(dp37
g32
S'ACTCAACCCTTCCTTGTGGCCACCACTGCTGTCCATACCTGTCAGGTATCTATTCTGAGGAATGGAGACAAGGGACAGGCATAGCCTGGAGGTACAACCTCAGTCCCCAGAGACCCCAGCCTGCTTCAGTCAGAGTCCCTGGGGACATCCTGGCAAGCCTATCTCAGTCATGCCCCTGGTGTCTCAGCCTCTCCTCATCTGAACACTTGCCTTTCCTATCCTGTAAACTATATCATCCACGGCCCCCAGAAAGCCCCTTTATAAGAGTTGGTGTGCCTCCCATGAGTCTGTAGGGCTGGAATAGGAGAAAAGGCCAGGCCAGCTTAGGGTGACTCTTAGAGACAGTTTCAAGAGGAGGTGGGAAAGCTGGCTGTCCTGCTCATGACTCTGGGGTCCATCCAGGAGGTAGAGCCATCCTGGCCCTGTTCCCCTCCCTTTCTGGTTAAGGCAGGGCTCTCAGAGCCTGAACATCCTCCACTGGCCATGAATGTGATAGGA'
p38
sg34
S'ACTCAACCCTTCCTTGTGGCCACCACTGCTGTCCATACCTGTCAGGTATCTATTCTGAGGAATGGAGACAAGGGACAGGCATAGCCTGGAGGTACAACCTCAGTCCCCAGAGACCCCAGCCTGCTTCAGTCAGAGTCCCTGGGGACATCCTGGCAAGCCTATCTCAGTCATGCCCCTGGTGTCTCAGCCTCTCCTCATCTGAACACTTGCCTTTCCTATCCTGTAAACTATATCATCCACGGCCCCCAGAAAGCCCCTTTATAAGAGTTGGTGTGCCTCCCATGAGTCTGTAGGGCTGGAATAGGAGAAAAGGCCAGGCCAGCTTAGGGTGACTCTTAGAGACAGTTTCAAGAGGAGGTGGGAAAGCTGGCTGTCCTGCTCATGACTCTGGGGTCCATCCAGGAGGTAGAGCCATCCTGGCCCTGTTCCCCTCCCTTTCTGGTTAAGGCAGGGCTCTCAGAGCCTGAACATCCTCCACTGGCCATGAATGTGATAGGA'
p39
sssS'tCuts'
p40
(lp41
S'10438511'
p42
aS'10439608'
p43
asS'tStrand'
p44
S'+'
sS'NumMisMatches'
p45
I887
sS'tStart'
p46
S'10438511'
p47
sS'percentCoverage'
p48
F1
sS'qStart'
p49
I0
sS'QuerySequence'
p50
S'ACTCAACCCTTCCTTGTGGCCACCACTGCTGTCCATACCTGTCAGGTATCTATTCTGAGGAATGGAGACAAGGGACAGGCATAGCCTGGAGGTACAACCTCAGTCCCCAGAGACCCCAGCCTGCTTCAGTCAGAGTCCCTGGGGACATCCTGGCAAGCCTATCTCAGTCATGCCCCTGGTGTCTCAGCCTCTCCTCATCTGAACACTTGCCTTTCCTATCCTGTAAACTATATCATCCACGGCCCCCAGAAAGCCCCTTTATAAGAGTTGGTGTGCCTCCCATGAGTCTGTAGGGCTGGAATAGGAGAAAAGGCCAGGCCAGCTTAGGGTGACTCTTAGAGACAGTTTCAAGAGGAGGTGGGAAAGCTGGCTGTCCTGCTCATGACTCTGGGGTCCATCCAGGAGGTAGAGCCATCCTGGCCCTGTTCCCCTCCCTTTCTGGTTAAGGCAGGGCTCTCAGAGCCTGAACATCCTCCACTGGCCATGAATGTGATAGGACACAGGCTTTGAGGGGGGAGACTGTTACAGGCTAGGGTCCCACCTTATGACACTCAGAGGTACATTGCTCTGGAACAACCAGGTAAAGGGGCCCTACAGATCTAGAGAAAGTGCCAGAACCTTCCTGGACTCTTTCCTCCATCTTCATCCTCATCCTCCTCAGCCCTGGTCTAGTCTGTCTGAACTGGAACCTCAGATTTCGTACTTACTGGCTGTGTGACATTAAGAAAAATCCTAACCTCTCTGGTCCTCAGTTTCTTCATTTATAAAATAGCAGTAATGATGGTAATTAAGCAAATTAGTAACTTTTCAAAGCACATAGAGCAGGCCCTGACACCTAAAAGGTGTTGATATCAGCTCCTTGAAGATATGGTCTGTTGCTGGCCTTT'
p51
sS'QCPass'
p52
I01
sb.