(iDELclass
BlatInfo
p1
(dp2
S'qBaseInserts'
p3
I1
sS'deletions'
p4
(lp5
(lp6
I25255721
aasS'qEnd'
p7
I407
sS'name'
p8
S'HTmem203DEL1EM2B6N_Tmem203_15452_Tmem203'
p9
sS'querySize'
p10
I407
sS'qCuts'
p11
(lp12
I0
aI52
asS'qBlocks'
p13
(lp14
I52
aI355
asS'Chromosome'
p15
S'chr2'
p16
sS'tBaseInserts'
p17
I0
sS'genomicFlats'
p18
(lp19
(lp20
I25255669
aI25255721
aa(lp21
I25255722
aI25256077
aasS'deletionSequences'
p22
(dp23
S'>chr2(+):25255721'
p24
S'A'
ssS'tEnd'
p25
S'25256077'
p26
sS'DelGenomicSeqs'
p27
(dp28
S'chr2(+):25255669-25255721'
p29
(dp30
S'Genomic'
p31
S'ATGTTATTCTCGCTGCGGGAGCTGGTGCAGTGGCTGGGCTTCGCCACCTTTG'
p32
sS'Del'
p33
S'ATGTTATTCTCGCTGCGGGAGCTGGTGCAGTGGCTGGGCTTCGCCACCTTTG'
p34
ssS'chr2(+):25255722-25256077'
p35
(dp36
g31
S'GATATTCGTGCACCTGCTGGCCCTGTTGGTGTTCTCCGTACTGTTGGCACTGCGAGTGGATGGCTTGACTCCGGGCCTCTCCTGGTGGAACGTCTTTGTGCCCTTTTTCGCCGCCGACGGGCTCAGTACCTACTTCACCACCATCGTTTCCGTTCGACTCTTCCAAGATGGGGAGAAGCGACTGGCTGTGCTGCGCCTCTTCTGGGTTCTCACCGTCCTTAGCCTCAAGTTTGTCTTTGAGATGTTGCTGTGCCAGAAGCTAGTGGAGCAGACTCGAGAGCTCTGGTTCGGCCTGATCACGTCTCCGGTCTTCATTCTCCTGCAGCTGCTCATGATCCGGGCTTGTCGCGTCAAC'
p37
sg33
S'GATATTCGTGCACCTGCTGGCCCTGTTGGTGTTCTCCGTACTGTTGGCACTGCGAGTGGATGGCTTGACTCCGGGCCTCTCCTGGTGGAACGTCTTTGTGCCCTTTTTCGCCGCCGACGGGCTCAGTACCTACTTCACCACCATCGTTTCCGTTCGACTCTTCCAAGATGGGGAGAAGCGACTGGCTGTGCTGCGCCTCTTCTGGGTTCTCACCGTCCTTAGCCTCAAGTTTGTCTTTGAGATGTTGCTGTGCCAGAAGCTAGTGGAGCAGACTCGAGAGCTCTGGTTCGGCCTGATCACGTCTCCGGTCTTCATTCTCCTGCAGCTGCTCATGATCCGGGCTTGTCGCGTCAAC'
p38
sssS'tCuts'
p39
(lp40
S'25255669'
p41
aS'25255722'
p42
asS'tStrand'
p43
S'+'
sS'NumMisMatches'
p44
I407
sS'tStart'
p45
S'25255669'
p46
sS'percentCoverage'
p47
F1
sS'qStart'
p48
I0
sS'QuerySequence'
p49
S'ATGTTATTCTCGCTGCGGGAGCTGGTGCAGTGGCTGGGCTTCGCCACCTTTGGATATTCGTGCACCTGCTGGCCCTGTTGGTGTTCTCCGTACTGTTGGCACTGCGAGTGGATGGCTTGACTCCGGGCCTCTCCTGGTGGAACGTCTTTGTGCCCTTTTTCGCCGCCGACGGGCTCAGTACCTACTTCACCACCATCGTTTCCGTTCGACTCTTCCAAGATGGGGAGAAGCGACTGGCTGTGCTGCGCCTCTTCTGGGTTCTCACCGTCCTTAGCCTCAAGTTTGTCTTTGAGATGTTGCTGTGCCAGAAGCTAGTGGAGCAGACTCGAGAGCTCTGGTTCGGCCTGATCACGTCTCCGGTCTTCATTCTCCTGCAGCTGCTCATGATCCGGGCTTGTCGCGTCAAC'
p50
sS'QCPass'
p51
I01
sb.