(dp1
S'Gm17750'
p2
(lp3
V13
p4
aI-1
aI84025297
aI84064772
asS'Spatc1l'
p5
(lp6
V10
p7
aI1
aI76562272
aI76570201
asS'Cpne7'
p8
(lp9
V8
aI1
aI123117374
aI123135182
asS'Kcnh8'
p10
(lp11
V17
p12
aI1
aI52602709
aI52979194
asS'Rbbp4'
p13
(lp14
V4
aI-1
aI129307100
aI129335370
asS'Kpna2'
p15
(lp16
V11
p17
aI-1
aI106988629
aI106999541
asS'Shank3'
p18
(lp19
V15
p20
aI1
aI89499623
aI89560261
asS'Adssl1'
p21
(lp22
V12
p23
aI1
aI112620045
aI112641360
asS'Kdm5b'
p24
(lp25
V1
aI1
aI134560171
aI134635285
asS'Ttc14'
p26
(lp27
V3
aI1
aI33799832
aI33814860
asS'Usp45'
p28
(lp29
V4
aI1
aI21767156
aI21837872
asS'Usp47'
p30
(lp31
V7
aI1
aI112023504
aI112111661
asS'Syt7'
p32
(lp33
V19
p34
aI1
aI10389090
aI10453181
asS'Macrod1'
p35
(lp36
V19
p37
aI1
aI7056768
aI7198061
asS'Clca1'
p38
(lp39
V3
aI-1
aI145003817
aI145032776
asS'Sec61b'
p40
(lp41
V4
aI1
aI47474658
aI47483242
asS'Kctd17'
p42
(lp43
V15
p44
aI1
aI78428564
aI78438909
asS'Ccdc114'
p45
(lp46
V7
aI1
aI45924072
aI45948963
asS'Tacc3'
p47
(lp48
V5
aI1
aI33658128
aI33678995
asS'Ncapd2'
p49
(lp50
V6
aI-1
aI125168007
aI125191701
asS'Ncapd3'
p51
(lp52
V9
aI1
aI27030175
aI27095315
asS'Dlk1'
p53
(lp54
V12
p55
aI1
aI109452823
aI109463336
asS'Wdr82'
p56
(lp57
V9
aI1
aI106170928
aI106191139
asS'Speer4f1'
p58
(lp59
V5
aI1
aI17476098
aI17480936
asS'Mbl2'
p60
(lp61
V19
p62
aI1
aI30232928
aI30239685
asS'Naa10'
p63
(lp64
VX
aI-1
aI73916873
aI73921944
asS'Fubp1'
p65
(lp66
V3
aI1
aI152210422
aI152236826
asS'Fam133b'
p67
(lp68
V5
aI1
aI3543833
aI3570238
asS'Ceacam15'
p69
(lp70
V7
aI-1
aI16671331
aI16675705
asS'Ipo7'
p71
(lp72
V7
aI1
aI110018274
aI110056609
asS'Ceacam11'
p73
(lp74
V7
aI1
aI17972124
aI17978556
asS'Ceacam13'
p75
(lp76
V7
aI1
aI18009889
aI18019221
asS'Ceacam12'
p77
(lp78
V7
aI1
aI18065929
aI18077986
asS'D430042O09Rik'
p79
(lp80
V7
aI1
aI125707888
aI125874793
asS'Grp'
p81
(lp82
V18
p83
aI1
aI65872820
aI65886579
asS'Dcaf6'
p84
(lp85
V1
aI-1
aI165328698
aI165460475
asS'C4b'
p86
(lp87
V17
p88
aI-1
aI34728380
aI34743882
asS'C2cd4a'
p89
(lp90
V9
aI-1
aI67830489
aI67832330
asS'C2cd4b'
p91
(lp92
V9
aI1
aI67759437
aI67760930
asS'Btg1'
p93
(lp94
V10
p95
aI1
aI96617006
aI96622809
asS'H2-T24'
p96
(lp97
V17
p98
aI-1
aI36005695
aI36020560
asS'Ms4a12'
p99
(lp100
V19
p101
aI-1
aI11215010
aI11230540
asS'Clcnkb'
p102
(lp103
V4
aI-1
aI141404353
aI141416014
asS'Echdc2'
p104
(lp105
V4
aI1
aI108165437
aI108179308
asS'AW112010'
p106
(lp107
V19
p108
aI-1
aI11047617
aI11050566
asS'Klk6'
p109
(lp110
V7
aI1
aI43824499
aI43832030
asS'Cdc20b'
p111
(lp112
V13
p113
aI1
aI113035111
aI113091195
asS'Fam102b'
p114
(lp115
V3
aI-1
aI108970997
aI109027607
asS'Ceacam3'
p116
(lp117
V7
aI1
aI17150282
aI17164253
asS'Amfr'
p118
(lp119
V8
aI-1
aI93971588
aI94012842
asS'Palm'
p120
(lp121
V10
p122
aI1
aI79793572
aI79820896
asS'Frmd6'
p123
(lp124
V12
p125
aI1
aI70825514
aI70902234
asS'Rhoq'
p126
(lp127
V17
p128
aI1
aI86963082
aI87000069
asS'Msl1'
p129
(lp130
V11
p131
aI1
aI98795516
aI98807859
asS'Myl10'
p132
(lp133
V5
aI1
aI136693146
aI136701094
asS'Klra6'
p134
(lp135
V6
aI-1
aI130013033
aI130026954
asS'Nktr'
p136
(lp137
V9
aI1
aI121719169
aI121756843
asS'Etv3'
p138
(lp139
V3
aI1
aI87525407
aI87540156
asS'Klf14'
p140
(lp141
V6
aI-1
aI30956023
aI30959078
asS'Dffb'
p142
(lp143
V4
aI-1
aI153964449
aI153975126
asS'Plcg2'
p144
(lp145
V8
aI1
aI117498291
aI117635142
asS'Plaur'
p146
(lp147
V7
aI1
aI24462484
aI24475968
asS'Btnl2'
p148
(lp149
V17
p150
aI1
aI34354822
aI34369493
asS'Slc37a3'
p151
(lp152
V6
aI-1
aI39334773
aI39377675
asS'Psg17'
p153
(lp154
V7
aI-1
aI18813937
aI18821607
asS'Lrrc8c'
p155
(lp156
V5
aI1
aI105519388
aI105613018
asS'Psg18'
p157
(lp158
V7
aI-1
aI18345422
aI18355009
asS'Il18r1'
p159
(lp160
V1
aI1
aI40465552
aI40500854
asS'Pilrb2'
p161
(lp162
V5
aI-1
aI137865827
aI137871815
asS'Tmem203'
p163
(lp164
V2
aI1
aI25255439
aI25256292
asS'Phldb2'
p165
(lp166
V16
p167
aI-1
aI45746243
aI45953598
asS'Arhgap28'
p168
(lp169
V17
p170
aI-1
aI67842713
aI68004120
asS'Crip1'
p171
(lp172
V12
p173
aI1
aI113146316
aI113153879
asS'Trp73'
p174
(lp175
V4
aI-1
aI154056253
aI154140208
asS'Ccdc65'
p176
(lp177
V15
p178
aI1
aI98708207
aI98723326
asS'Bpifa2'
p179
(lp180
V2
aI1
aI154008265
aI154016079
asS'Myct1'
p181
(lp182
V10
p183
aI1
aI5593775
aI5606904
asS'Tapbpl'
p184
(lp185
V6
aI-1
aI125223933
aI125231860
asS'Tcf25'
p186
(lp187
V8
aI1
aI123373753
aI123403835
asS'Tcf20'
p188
(lp189
V15
p190
aI-1
aI82808629
aI82912134
asS'Cntd1'
p191
(lp192
V11
p193
aI1
aI101279012
aI101296317
asS'Tmc7'
p194
(lp195
V7
aI-1
aI118535841
aI118584736
asS'Larp4b'
p196
(lp197
V13
p198
aI1
aI9093881
aI9174451
asS'Olfr392'
p199
(lp200
V11
p201
aI-1
aI73811740
aI73817049
asS'Icam5'
p202
(lp203
V9
aI1
aI21032073
aI21039036
asS'Anxa10'
p204
(lp205
V8
aI-1
aI62057042
aI62123150
asS'Anxa11'
p206
(lp207
V14
p208
aI1
aI25842156
aI25886804
asS'Zc3h11a'
p209
(lp210
V1
aI-1
aI133619862
aI133661380
asS'Lzts1'
p211
(lp212
V8
aI-1
aI69132669
aI69184225
asS'Ddx23'
p213
(lp214
V15
p215
aI-1
aI98645134
aI98662889
asS'Vmn2r27'
p216
(lp217
V6
aI-1
aI124191596
aI124231784
asS'Herc1'
p218
(lp219
V9
aI1
aI66350450
aI66508775
asS'Rps12'
p220
(lp221
V10
p222
aI-1
aI23785183
aI23787275
asS'1110017D15Rik'
p223
(lp224
V4
aI-1
aI41505009
aI41517333
asS'Jmjd7'
p225
(lp226
V2
aI1
aI120027483
aI120032594
asS'Jmjd4'
p227
(lp228
V11
p229
aI1
aI59450045
aI59458567
asS'Zfp748'
p230
(lp231
V13
p232
aI-1
aI67538641
aI67553830
asS'Ap2a2'
p233
(lp234
V7
aI1
aI141562173
aI141633011
asS'Copb1'
p235
(lp236
V7
aI-1
aI114215559
aI114254711
asS'Cmtr2'
p237
(lp238
V8
aI1
aI110215665
aI110224486
asS'Dnaja2'
p239
(lp240
V8
aI-1
aI85537633
aI85555344
asS'Crlf3'
p241
(lp242
V11
p243
aI-1
aI80046493
aI80080991
asS'Rab30'
p244
(lp245
V7
aI1
aI92741603
aI92844535
asS'Cry1'
p246
(lp247
V10
p248
aI-1
aI85131700
aI85185064
asS'Gcc2'
p249
(lp250
V10
p251
aI1
aI58255497
aI58305599
asS'Vcpip1'
p252
(lp253
V1
aI-1
aI9718622
aI9748382
asS'Hapln4'
p254
(lp255
V8
aI1
aI70083457
aI70090862
asS'Smim1'
p256
(lp257
V4
aI-1
aI154020470
aI154026230
asS'H2al2a'
p258
(lp259
V2
aI-1
aI17996417
aI17996958
asS'Lrba'
p260
(lp261
V3
aI1
aI86224680
aI86782692
asS'Slc22a17'
p262
(lp263
V14
p264
aI-1
aI54906727
aI54913132
asS'4930524B15Rik'
p265
(lp266
V11
p267
aI1
aI31965592
aI31979651
asS'Antxrl'
p268
(lp269
V14
p270
aI1
aI34053470
aI34075999
asS'Mga'
p271
(lp272
V2
aI1
aI119897228
aI119969581
asS'Agbl4'
p273
(lp274
V4
aI1
aI110397661
aI111664324
asS'Anxa8'
p275
(lp276
V14
p277
aI1
aI34085981
aI34100571
asS'Rgl3'
p278
(lp279
V9
aI-1
aI21968711
aI21989446
asS'4932431P20Rik'
p280
(lp281
V7
aI1
aI29524543
aI29538055
asS'Fam13a'
p282
(lp283
V6
aI-1
aI58932090
aI59024549
asS'Erlec1'
p284
(lp285
V11
p286
aI-1
aI30930774
aI30954335
asS'Gsg1l'
p287
(lp288
V7
aI-1
aI125878420
aI126082411
asS'Hrnr'
p289
(lp290
V3
aI1
aI93319749
aI93333570
asS'Pdik1l'
p291
(lp292
V4
aI-1
aI134275002
aI134287895
asS'Cfap53'
p293
(lp294
V18
p295
aI1
aI74283090
aI74359986
asS'Phgdh'
p296
(lp297
V3
aI-1
aI98313170
aI98339990
asS'Il18rap'
p298
(lp299
V1
aI1
aI40515362
aI40551705
asS'Arhgef16'
p300
(lp301
V4
aI-1
aI154278486
aI154301676
asS'Trabd'
p302
(lp303
V15
p304
aI1
aI89075124
aI89087077
asS'Ifi207'
p305
(lp306
V1
aI-1
aI173723427
aI173741747
asS'Gfm2'
p307
(lp308
V13
p309
aI1
aI97137937
aI97181195
asS'Usp51'
p310
(lp311
VX
aI1
aI153006469
aI153009416
asS'Rbm24'
p312
(lp313
V13
p314
aI1
aI46418434
aI46431095
asS'Rbm25'
p315
(lp316
V12
p317
aI1
aI83631236
aI83683123
asS'Rbm22'
p318
(lp319
V18
p320
aI1
aI60560736
aI60572810
asS'Lpcat3'
p321
(lp322
V6
aI1
aI124663027
aI124704418
asS'Pja1'
p323
(lp324
VX
aI-1
aI99465734
aI99471273
asS'Cpsf6'
p325
(lp326
V10
p327
aI-1
aI117344673
aI117380015
asS'Abhd6'
p328
(lp329
V14
p330
aI1
aI8002902
aI8056763
asS'Kat2b'
p331
(lp332
V17
p333
aI1
aI53566861
aI53672720
asS'Rimbp2'
p334
(lp335
V5
aI-1
aI128757791
aI128953486
asS'Rsrc1'
p336
(lp337
V3
aI1
aI66981390
aI67358396
asS'Asxl3'
p338
(lp339
V18
p340
aI1
aI22344883
aI22530227
asS'Spag11a'
p341
(lp342
V8
aI1
aI19157886
aI19159578
asS'Tlr11'
p343
(lp344
V14
p345
aI1
aI50357914
aI50363663
asS'Tlr12'
p346
(lp347
V4
aI-1
aI128615443
aI128618619
asS'Psg29'
p348
(lp349
V7
aI1
aI17203477
aI17215760
asS'Psg28'
p350
(lp351
V7
aI-1
aI18422536
aI18432041
asS'Gm14496'
p352
(lp353
V2
aI1
aI181991226
aI182001766
asS'Psg25'
p354
(lp355
V7
aI-1
aI18519702
aI18532269
asS'Psg27'
p356
(lp357
V7
aI-1
aI18556514
aI18567305
asS'Psg26'
p358
(lp359
V7
aI-1
aI18474582
aI18484177
asS'Psg21'
p360
(lp361
V7
aI-1
aI18646736
aI18656725
asS'Psg20'
p362
(lp363
V7
aI-1
aI18674107
aI18686185
asS'Psg22'
p364
(lp365
V7
aI1
aI18718090
aI18727248
asS'Cd300ld2'
p366
(lp367
V11
p368
aI-1
aI115010335
aI115016193
asS'Plcz1'
p369
(lp370
V6
aI-1
aI139989673
aI140041457
asS'Pdss1'
p371
(lp372
V2
aI1
aI22895522
aI22940266
asS'Prr14l'
p373
(lp374
V5
aI-1
aI32789820
aI32854256
asS'Mbd1'
p375
(lp376
V18
p377
aI1
aI74267605
aI74282732
asS'Phf8'
p378
(lp379
VX
aI1
aI151520672
aI151633859
asS'Slc25a18'
p380
(lp381
V6
aI1
aI120773578
aI120794336
asS'Phf7'
p382
(lp383
V14
p384
aI-1
aI31237696
aI31251218
asS'Slc25a14'
p385
(lp386
VX
aI1
aI48623413
aI48662294
asS'Erich3'
p387
(lp388
V3
aI1
aI154663859
aI154767790
asS'1700025G04Rik'
p389
(lp390
V1
aI-1
aI151852403
aI152090125
asS'Troap'
p391
(lp392
V15
p393
aI1
aI99074973
aI99083407
asS'Csmd3'
p394
(lp395
V15
p396
aI-1
aI47580637
aI48792063
asS'Sltm'
p397
(lp398
V9
aI1
aI70542754
aI70592234
asS'Abhd10'
p399
(lp400
V16
p401
aI-1
aI45729725
aI45742955
asS'Abhd11'
p402
(lp403
V5
aI1
aI135009152
aI135012175
asS'Serpinb9b'
p404
(lp405
V13
p406
aI1
aI33027416
aI33041884
asS'Ceacam14'
p407
(lp408
V7
aI1
aI17812633
aI17815663
asS'Scn4b'
p409
(lp410
V9
aI1
aI45138395
aI45154152
asS'3632451O06Rik'
p411
(lp412
V14
p413
aI-1
aI49681560
aI49783383
asS'Ppp1cc'
p414
(lp415
V5
aI1
aI122158278
aI122175273
asS'Itln1'
p416
(lp417
V1
aI-1
aI171518122
aI171535294
asS'Gin1'
p418
(lp419
V1
aI1
aI97770172
aI97793709
asS'Trps1'
p420
(lp421
V15
p422
aI-1
aI50654752
aI50890463
asS'Vsig10'
p423
(lp424
V5
aI1
aI117319083
aI117355005
asS'Sgtb'
p425
(lp426
V13
p427
aI1
aI104109741
aI104141735
asS'Olfr1098'
p428
(lp429
V2
aI-1
aI86920949
aI86924545
asS'Fignl1'
p430
(lp431
V11
p432
aI-1
aI11787431
aI11808962
asS'Dmbt1'
p433
(lp434
V7
aI1
aI131032053
aI131121630
asS'Fam129c'
p435
(lp436
V8
aI1
aI71597648
aI71607936
asS'Zfp637'
p437
(lp438
V6
aI1
aI117841180
aI117845956
asS'Bin2'
p439
(lp440
V15
p441
aI-1
aI100641077
aI100669553
asS'Bdkrb1'
p442
(lp443
V12
p444
aI1
aI105603085
aI105605428
asS'Iars'
p445
(lp446
V13
p447
aI1
aI49682100
aI49734267
asS'Clic3'
p448
(lp449
V2
aI1
aI25456838
aI25458776
asS'Cyp4v3'
p450
(lp451
V8
aI-1
aI45304944
aI45333216
asS'Cd300ld'
p452
(lp453
V11
p454
aI-1
aI114982274
aI114989922
asS'Crisp2'
p455
(lp456
V17
p457
aI-1
aI40764734
aI40807003
asS'Dusp14'
p458
(lp459
V11
p460
aI-1
aI84048041
aI84069261
asS'Btbd17'
p461
(lp462
V11
p463
aI-1
aI114791217
aI114795945
asS'Gpatch1'
p464
(lp465
V7
aI-1
aI35276536
aI35318440
asS'Spata13'
p466
(lp467
V14
p468
aI1
aI60634001
aI60764556
asS'Acp1'
p469
(lp470
V12
p471
aI-1
aI30893326
aI30911589
asS'Pdp1'
p472
(lp473
V4
aI-1
aI11958184
aI11966452
asS'Upf3a'
p474
(lp475
V8
aI1
aI13785615
aI13799193
asS'Aadac'
p476
(lp477
V3
aI1
aI60025717
aI60040160
asS'Acoxl'
p478
(lp479
V2
aI1
aI127838876
aI128123873
asS'Zufsp'
p480
(lp481
V10
p482
aI-1
aI33919142
aI33951269
asS'Dsg1c'
p483
(lp484
V18
p485
aI1
aI20247340
aI20285031
asS'Pvr'
p486
(lp487
V7
aI-1
aI19903578
aI19921160
asS'Matn4'
p488
(lp489
V2
aI-1
aI164389393
aI164405160
asS'Rnf145'
p490
(lp491
V11
p492
aI1
aI44518964
aI44565520
asS'Far1'
p493
(lp494
V7
aI1
aI113513834
aI113571511
asS'Ufsp2'
p495
(lp496
V8
aI1
aI45975528
aI45996958
asS'Ikzf2'
p497
(lp498
V1
aI-1
aI69531214
aI69687245
asS'Fmo3'
p499
(lp500
V1
aI-1
aI162953800
aI162984528
asS'Pcdh1'
p501
(lp502
V18
p503
aI-1
aI38185914
aI38212053
asS'Zmynd11'
p504
(lp505
V13
p506
aI-1
aI9684833
aI9765330
asS'Baat'
p507
(lp508
V4
aI-1
aI49489422
aI49506557
asS'Mefv'
p509
(lp510
V16
p511
aI-1
aI3707215
aI3718124
asS'Ddx3x'
p512
(lp513
VX
aI1
aI13280970
aI13294052
asS'Ssc5d'
p514
(lp515
V7
aI1
aI4925785
aI4944826
asS'Chodl'
p516
(lp517
V16
p518
aI1
aI78930948
aI78951733
asS'Maats1'
p519
(lp520
V16
p521
aI-1
aI38297754
aI38342143
asS'Gckr'
p522
(lp523
V5
aI1
aI31297443
aI31327314
asS'Ccdc6'
p524
(lp525
V10
p526
aI1
aI70097121
aI70193200
asS'Plxdc1'
p527
(lp528
V11
p529
aI-1
aI97923238
aI97986444
asS'Pttg1ip'
p530
(lp531
V10
p532
aI1
aI77581720
aI77598732
asS'Rpl5'
p533
(lp534
V5
aI1
aI107900502
aI107909005
asS'Oard1'
p535
(lp536
V17
p537
aI1
aI48410014
aI48417266
asS'Dusp12'
p538
(lp539
V1
aI-1
aI170873498
aI170885540
asS'Tas2r139'
p540
(lp541
V6
aI1
aI42140936
aI42141895
asS'Dok5'
p542
(lp543
V2
aI1
aI170731807
aI170879769
asS'Dnajb9'
p544
(lp545
V12
p546
aI-1
aI44205559
aI44210326
asS'Zfp236'
p547
(lp548
V18
p549
aI-1
aI82593593
aI82692883
asS'Heatr9'
p550
(lp551
V11
p552
aI-1
aI83511736
aI83522175
asS'Vpreb3'
p553
(lp554
V10
p555
aI1
aI75943057
aI75949657
asS'Kera'
p556
(lp557
V10
p558
aI1
aI97606879
aI97613692
asS'Itm2a'
p559
(lp560
VX
aI-1
aI107397099
aI107403376
asS'Catsper3'
p561
(lp562
V13
p563
aI1
aI55784568
aI55808998
asS'Rras'
p564
(lp565
V7
aI1
aI45017961
aI45021647
asS'Rnf114'
p566
(lp567
V2
aI1
aI167492645
aI167516173
asS'Rnf115'
p568
(lp569
V3
aI1
aI96727664
aI96791638
asS'Neurl4'
p570
(lp571
V11
p572
aI1
aI69901072
aI69913820
asS'Gpr160'
p573
(lp574
V3
aI1
aI30855950
aI30897192
asS'Awat2'
p575
(lp576
VX
aI-1
aI100402221
aI100442717
asS'Plet1'
p577
(lp578
V9
aI1
aI50494525
aI50505482
asS'Cyp4f18'
p579
(lp580
V8
aI-1
aI71988482
aI72009626
asS'Zfp672'
p581
(lp582
V11
p583
aI-1
aI58315114
aI58330339
asS'Pdlim1'
p584
(lp585
V19
p586
aI-1
aI40221173
aI40271842
asS'Tars'
p587
(lp588
V15
p589
aI-1
aI11383663
aI11399658
asS'Prdm8'
p590
(lp591
V5
aI1
aI98167198
aI98188991
asS'4833420G17Rik'
p592
(lp593
V13
p594
aI1
aI119462768
aI119486120
asS'Ostn'
p595
(lp596
V16
p597
aI1
aI27307489
aI27351212
asS'Fam188a'
p598
(lp599
V2
aI-1
aI12347263
aI12419470
asS'Fam188b'
p600
(lp601
V6
aI1
aI55203383
aI55320222
asS'Spaca9'
p602
(lp603
V2
aI-1
aI28692080
aI28699727
asS'Unc5cl'
p604
(lp605
V17
p606
aI1
aI48454901
aI48539714
asS'Tspan33'
p607
(lp608
V6
aI1
aI29694222
aI29718559
asS'Wdr11'
p609
(lp610
V7
aI1
aI129591863
aI129635738
asS'Cntnap2'
p611
(lp612
V6
aI1
aI45059357
aI47304213
asS'Fut2'
p613
(lp614
V7
aI-1
aI45648591
aI45666394
asS'Fam111a'
p615
(lp616
V19
p617
aI1
aI12545740
aI12589768
asS'Ccdc85c'
p618
(lp619
V12
p620
aI-1
aI108203602
aI108275425
asS'Fut8'
p621
(lp622
V12
p623
aI1
aI77238125
aI77476338
asS'Zmym2'
p624
(lp625
V14
p626
aI1
aI56886653
aI56962701
asS'Csf2ra'
p627
(lp628
V19
p629
aI-1
aI61224402
aI61228418
asS'Mdfic'
p630
(lp631
V6
aI1
aI15720661
aI15802169
asS'Mark4'
p632
(lp633
V7
aI-1
aI19424775
aI19458821
asS'Pde6a'
p634
(lp635
V18
p636
aI1
aI61220482
aI61289924
asS'Pcdh20'
p637
(lp638
V14
p639
aI-1
aI88464743
aI88471396
asS'Ndrg2'
p640
(lp641
V14
p642
aI-1
aI51905271
aI51913488
asS'Lmod3'
p643
(lp644
V6
aI-1
aI97238534
aI97252759
asS'Emcn'
p645
(lp646
V3
aI1
aI137341067
aI137432185
asS'Auts2'
p647
(lp648
V5
aI-1
aI131437333
aI132543344
asS'Mcts1'
p649
(lp650
VX
aI1
aI38600578
aI38613426
asS'Cps1'
p651
(lp652
V1
aI1
aI67123026
aI67231259
asS'Cndp2'
p653
(lp654
V18
p655
aI-1
aI84667470
aI84685633
asS'Glcci1'
p656
(lp657
V6
aI1
aI8509600
aI8597548
asS'Rgag4'
p658
(lp659
VX
aI-1
aI102066544
aI102071304
asS'Cd96'
p660
(lp661
V16
p662
aI-1
aI46035657
aI46120251
asS'Cd160'
p663
(lp664
V3
aI-1
aI96798763
aI96829351
asS'Vgf'
p665
(lp666
V5
aI1
aI137026392
aI137033351
asS'Fam110c'
p667
(lp668
V12
p669
aI1
aI31073861
aI31080251
asS'2700054A10Rik'
p670
(lp671
S'17'
p672
aS'-'
aI13487021
aI13554094
asS'Tuba4a'
p673
(lp674
V1
aI-1
aI75214228
aI75219865
asS'Spata46'
p675
(lp676
V1
aI1
aI170308803
aI170312125
asS'Dcn'
p677
(lp678
V10
p679
aI1
aI97479609
aI97518143
asS'Ormdl3'
p680
(lp681
V11
p682
aI-1
aI98581256
aI98587368
asS'Parn'
p683
(lp684
V16
p685
aI-1
aI13537964
aI13668170
asS'1700069L16Rik'
p686
(lp687
V5
aI-1
aI113692422
aI113724772
asS'Itgam'
p688
(lp689
V7
aI1
aI128062683
aI128128160
asS'Skint7'
p690
(lp691
V4
aI1
aI111972923
aI111988223
asS'Camk1d'
p692
(lp693
V2
aI-1
aI5293457
aI5714515
asS'Clasp1'
p694
(lp695
V1
aI1
aI118389058
aI118612678
asS'Ccl5'
p696
(lp697
V11
p698
aI-1
aI83525778
aI83530518
asS'Agbl5'
p699
(lp700
V5
aI1
aI30888694
aI30906965
asS'Ap3m2'
p701
(lp702
V8
aI-1
aI22787354
aI22805622
asS'Myl3'
p703
(lp704
V9
aI1
aI110741861
aI110769798
asS'Opn3'
p705
(lp706
V1
aI-1
aI175662421
aI175692776
asS'Dph5'
p707
(lp708
V3
aI1
aI115887837
aI115934361
asS'Rasgrp3'
p709
(lp710
V17
p711
aI1
aI75435905
aI75529043
asS'Tada2a'
p712
(lp713
V11
p714
aI-1
aI84078920
aI84129600
asS'Exo5'
p715
(lp716
V4
aI-1
aI120921196
aI120925017
asS'Cep72'
p717
(lp718
V13
p719
aI-1
aI74036500
aI74062299
asS'Hars'
p720
(lp721
V18
p722
aI-1
aI36766530
aI36783205
asS'Fam196b'
p723
(lp724
V11
p725
aI1
aI34314822
aI34422640
asS'Dnajc24'
p726
(lp727
V2
aI-1
aI105966709
aI106003549
asS'Fam19a3'
p728
(lp729
V3
aI-1
aI104767406
aI104781840
asS'Cdyl'
p730
(lp731
V13
p732
aI1
aI35659833
aI35874063
asS'Nnmt'
p733
(lp734
V9
aI-1
aI48591877
aI48605153
asS'Pkhd1l1'
p735
(lp736
V15
p737
aI1
aI44457553
aI44601369
asS'Pi15'
p738
(lp739
V1
aI1
aI17601901
aI17630939
asS'Alpk1'
p740
(lp741
V3
aI-1
aI127670310
aI127780527
asS'Scaf11'
p742
(lp743
V15
p744
aI-1
aI96411698
aI96460843
asS'Brcc3'
p745
(lp746
VX
aI1
aI75416628
aI75454001
asS'Mkrn2'
p747
(lp748
V6
aI1
aI115601902
aI115622624
asS'Hao2'
p749
(lp750
V3
aI-1
aI98874521
aI98893239
asS'Aes'
p751
(lp752
V10
p753
aI1
aI81559488
aI81566362
asS'Cetn4'
p754
(lp755
V3
aI-1
aI37307749
aI37312708
asS'H2afb3'
p756
(lp757
VX
aI-1
aI120312748
aI120313095
asS'Nrxn2'
p758
(lp759
V19
p760
aI1
aI6418731
aI6544169
asS'Lrrc36'
p761
(lp762
V8
aI1
aI105413571
aI105464086
asS'Chadl'
p763
(lp764
V15
p765
aI-1
aI81678296
aI81697287
asS'Phip'
p766
(lp767
V9
aI-1
aI82866159
aI82975516
asS'Abcc5'
p768
(lp769
V16
p770
aI-1
aI20331303
aI20426394
asS'Tle4'
p771
(lp772
V19
p773
aI-1
aI14448072
aI14598051
asS'Atxn7l2'
p774
(lp775
V3
aI-1
aI108202222
aI108210934
asS'Otop2'
p776
(lp777
V11
p778
aI1
aI115307163
aI115332303
asS'Sytl3'
p779
(lp780
V17
p781
aI1
aI6673458
aI6738042
asS'Tox2'
p782
(lp783
V2
aI1
aI163203125
aI163324170
asS'Fgfbp1'
p784
(lp785
V5
aI-1
aI43978858
aI43981779
asS'Dctn4'
p786
(lp787
V18
p788
aI1
aI60526185
aI60558766
asS'Htra3'
p789
(lp790
V5
aI-1
aI35652023
aI35679782
asS'Wwp1'
p791
(lp792
V4
aI-1
aI19608303
aI19708993
asS'Gnb4'
p793
(lp794
V3
aI-1
aI32580332
aI32616585
asS'Ube2f'
p795
(lp796
V1
aI1
aI91250304
aI91290337
asS'Cdca2'
p797
(lp798
V14
p799
aI-1
aI67676331
aI67715841
asS'Gcsh'
p800
(lp801
V8
aI-1
aI116981810
aI116993537
asS'Il4ra'
p802
(lp803
V7
aI1
aI125552120
aI125579474
asS'P2ry14'
p804
(lp805
V3
aI-1
aI59113855
aI59153618
asS'Zcchc9'
p806
(lp807
V13
p808
aI-1
aI91796533
aI91807705
asS'Kif23'
p809
(lp810
V9
aI-1
aI61915905
aI61946774
asS'Stom'
p811
(lp812
V2
aI-1
aI35313986
aI35336976
asS'Ddx6'
p813
(lp814
V9
aI1
aI44604892
aI44640731
asS'Scaf1'
p815
(lp816
V7
aI-1
aI45002948
aI45016363
asS'C8g'
p817
(lp818
V2
aI-1
aI25498651
aI25501719
asS'Btn2a2'
p819
(lp820
V13
p821
aI-1
aI23477676
aI23488857
asS'Mctp1'
p822
(lp823
V13
p824
aI1
aI76384535
aI77031810
asS'5330434G04Rik'
p825
(lp826
VX
aI-1
aI105348282
aI105391776
asS'Plekhf1'
p827
(lp828
V7
aI-1
aI38216972
aI38228016
asS'Gdap2'
p829
(lp830
V3
aI1
aI100162381
aI100206981
asS'Vrk3'
p831
(lp832
V7
aI1
aI44748413
aI44777515
asS'Med23'
p833
(lp834
V10
p835
aI1
aI24869986
aI24913681
asS'Trbv19'
p836
(lp837
V6
aI1
aI41178375
aI41179048
asS'Adgb'
p838
(lp839
V10
p840
aI-1
aI10335703
aI10472326
asS'Dcun1d3'
p841
(lp842
V7
aI-1
aI119852796
aI119896298
asS'Slc38a1'
p843
(lp844
V15
p845
aI-1
aI96571418
aI96642913
asS'Brd2'
p846
(lp847
V17
p848
aI-1
aI34112023
aI34122634
asS'Dpy19l1'
p849
(lp850
V9
aI-1
aI24411776
aI24503140
asS'Tsks'
p851
(lp852
V7
aI1
aI44943204
aI44958035
asS'Adamts16'
p853
(lp854
V13
p855
aI-1
aI70727802
aI70841811
asS'Uchl5'
p856
(lp857
V1
aI1
aI143777272
aI143807466
asS'Pogk'
p858
(lp859
V1
aI-1
aI166384622
aI166409863
asS'Tm6sf2'
p860
(lp861
V8
aI1
aI70072924
aI70080066
asS'Glyatl3'
p862
(lp863
V17
p864
aI-1
aI40904741
aI40914350
asS'Hnrnpk'
p865
(lp866
V13
p867
aI-1
aI58391142
aI58403343
asS'Ankrd22'
p868
(lp869
V19
p870
aI-1
aI34122549
aI34166053
asS'Mb21d2'
p871
(lp872
V16
p873
aI-1
aI28826176
aI28929698
asS'Myo5b'
p874
(lp875
V18
p876
aI1
aI74440936
aI74771493
asS'Crim1'
p877
(lp878
V17
p879
aI1
aI78200248
aI78376592
asS'Sgk2'
p880
(lp881
V2
aI1
aI162987330
aI163014127
asS'Prss53'
p882
(lp883
V7
aI-1
aI127885841
aI127890970
asS'Dph7'
p884
(lp885
V2
aI1
aI24962400
aI24972163
asS'Vil1'
p886
(lp887
V1
aI1
aI74409376
aI74435559
asS'Sirpb1a'
p888
(lp889
V3
aI-1
aI15371653
aI15426520
asS'Sirpb1b'
p890
(lp891
V3
aI-1
aI15495751
aI15575065
asS'Sirpb1c'
p892
(lp893
V3
aI-1
aI15795145
aI15848528
asS'Gm2694'
p894
(lp895
V8
aI1
aI87460469
aI87525554
asS'Zfp763'
p896
(lp897
V17
p898
aI-1
aI33016863
aI33033402
asS'Ehd2'
p899
(lp900
V7
aI-1
aI15946958
aI15967567
asS'Wbscr22'
p901
(lp902
V5
aI-1
aI135052957
aI135064959
asS'Gm12169'
p903
(lp904
V11
p905
aI1
aI46524212
aI46538156
asS'Caskin1'
p906
(lp907
V17
p908
aI1
aI24488783
aI24508905
asS'Prkd1'
p909
(lp910
V12
p911
aI-1
aI50341231
aI50649098
asS'Lfng'
p912
(lp913
V5
aI1
aI140607320
aI140615545
asS'Fam178a'
p914
(lp915
S'19'
p916
aS'+'
aI44931119
aI44983787
asS'Snx14'
p917
(lp918
V9
aI-1
aI88376750
aI88438958
asS'Igsf8'
p919
(lp920
V1
aI1
aI172261641
aI172319841
asS'Ifi208'
p921
(lp922
V1
aI1
aI173673675
aI173698395
asS'Snx10'
p923
(lp924
V6
aI1
aI51523901
aI51590679
asS'Igsf6'
p925
(lp926
V7
aI-1
aI121064067
aI121074572
asS'Hpf1'
p927
(lp928
V8
aI1
aI60890418
aI60908671
asS'Dnajc1'
p929
(lp930
V2
aI-1
aI18195654
aI18392830
asS'Igsf3'
p931
(lp932
V3
aI1
aI101377083
aI101463059
asS'2900097C17Rik'
p933
(lp934
V2
aI-1
aI156388065
aI156392979
asS'Cd300c'
p935
(lp936
V11
p937
aI-1
aI114956116
aI114969157
asS'Hepacam'
p938
(lp939
V9
aI1
aI37367351
aI37386575
asS'Bcap31'
p940
(lp941
VX
aI-1
aI73686178
aI73716175
asS'Gm20646'
p942
(lp943
V1
aI1
aI42694925
aI42744791
asS'Eml1'
p944
(lp945
V12
p946
aI1
aI108370957
aI108539617
asS'Camk2d'
p947
(lp948
V3
aI1
aI126596302
aI126846326
asS'Kcnk13'
p949
(lp950
V12
p951
aI1
aI99964499
aI100062682
asS'Trim8'
p952
(lp953
V19
p954
aI1
aI46501648
aI46516444
asS'Gm5083'
p955
(lp956
V13
p957
aI1
aI44121167
aI44125179
asS'Trim6'
p958
(lp959
V7
aI1
aI104218793
aI104235152
asS'Smg5'
p960
(lp961
V3
aI1
aI88336260
aI88362338
asS'Lrr1'
p962
(lp963
V12
p964
aI1
aI69168814
aI69179009
asS'Filip1l'
p965
(lp966
V16
p967
aI1
aI57353093
aI57573126
asS'Nr0b1'
p968
(lp969
VX
aI1
aI86191764
aI86195947
asS'Zfp53'
p970
(lp971
V17
p972
aI1
aI21491256
aI21509764
asS'Nsmce1'
p973
(lp974
V7
aI-1
aI125467640
aI125491596
asS'Zfp54'
p975
(lp976
V17
p977
aI1
aI21423227
aI21435640
asS'Slc28a3'
p978
(lp979
V13
p980
aI-1
aI58545399
aI58610877
asS'Zfp58'
p981
(lp982
V13
p983
aI-1
aI67490167
aI67500555
asS'Dhrs7c'
p984
(lp985
V11
p986
aI1
aI67798187
aI67816002
asS'Morc2a'
p987
(lp988
V11
p989
aI1
aI3649494
aI3690477
asS'Tctn1'
p990
(lp991
V5
aI-1
aI122237848
aI122264460
asS'Taf4b'
p992
(lp993
V18
p994
aI1
aI14783245
aI14900359
asS'Stk3'
p995
(lp996
V15
p997
aI-1
aI34875496
aI35155806
asS'Ceacam5'
p998
(lp999
V7
aI1
aI17713238
aI17761132
asS'Rmst'
p1000
(lp1001
S'10'
p1002
aS'-'
aI92071037
aI92165170
asS'Elf4'
p1003
(lp1004
VX
aI-1
aI48411046
aI48463132
asS'Zfp383'
p1005
(lp1006
V7
aI1
aI29908223
aI29916813
asS'Sugp1'
p1007
(lp1008
V8
aI1
aI70042813
aI70072347
asS'Slitrk2'
p1009
(lp1010
VX
aI1
aI66649318
aI66661393
asS'Mrpl20'
p1011
(lp1012
V4
aI1
aI155802878
aI155809975
asS'Mrpl23'
p1013
(lp1014
V7
aI1
aI142532686
aI142540747
asS'Zc3h4'
p1015
(lp1016
V7
aI1
aI16400910
aI16437696
asS'Efcab3'
p1017
(lp1018
V11
p1019
aI1
aI105063592
aI105117537
asS'Wfdc2'
p1020
(lp1021
V2
aI1
aI164562413
aI164568510
asS'Hspa13'
p1022
(lp1023
V16
p1024
aI-1
aI75755190
aI75766821
asS'Cfap57'
p1025
(lp1026
V4
aI-1
aI118554551
aI118620777
asS'Gbp5'
p1027
(lp1028
V3
aI1
aI142493978
aI142522344
asS'Gbp4'
p1029
(lp1030
V5
aI-1
aI105115767
aI105139586
asS'Psmd3'
p1031
(lp1032
V11
p1033
aI1
aI98682554
aI98695979
asS'Lrch2'
p1034
(lp1035
VX
aI-1
aI147470375
aI147554081
asS'Zbtb48'
p1036
(lp1037
V4
aI-1
aI152019774
aI152027671
asS'Hhatl'
p1038
(lp1039
V9
aI-1
aI121784016
aI121792507
asS'Klrc1'
p1040
(lp1041
V6
aI-1
aI129666015
aI129678973
asS'Klrc3'
p1042
(lp1043
V6
aI-1
aI129639064
aI129643337
asS'Klrc2'
p1044
(lp1045
V6
aI-1
aI129647496
aI129660689
asS'Adprhl1'
p1046
(lp1047
V8
aI-1
aI13221663
aI13254162
asS'Adprhl2'
p1048
(lp1049
V4
aI-1
aI126316047
aI126321703
asS'Cbr1'
p1050
(lp1051
V16
p1052
aI1
aI93607837
aI93610505
asS'Zfp870'
p1053
(lp1054
V17
p1055
aI-1
aI32879228
aI32886083
asS'Col4a2'
p1056
(lp1057
V8
aI1
aI11312805
aI11449287
asS'Pitx1'
p1058
(lp1059
V13
p1060
aI-1
aI55825051
aI55836192
asS'Dnmbp'
p1061
(lp1062
V19
p1063
aI-1
aI43846821
aI43940191
asS'Gck'
p1064
(lp1065
V11
p1066
aI-1
aI5900820
aI5950081
asS'Gldn'
p1067
(lp1068
V9
aI1
aI54286486
aI54341786
asS'Olfr380'
p1069
(lp1070
V11
p1071
aI-1
aI73452886
aI73457508
asS'Tspan14'
p1072
(lp1073
V14
p1074
aI-1
aI40906445
aI40966807
asS'Tspan17'
p1075
(lp1076
V13
p1077
aI1
aI54789377
aI54796776
asS'4930502E18Rik'
p1078
(lp1079
VX
aI1
aI53724826
aI53738441
asS'Ptchd2'
p1080
(lp1081
V4
aI-1
aI148240264
aI148287965
asS'Xpo5'
p1082
(lp1083
V17
p1084
aI1
aI46202855
aI46242299
asS'Irgm1'
p1085
(lp1086
V11
p1087
aI-1
aI48861968
aI48871683
asS'Olfr376'
p1088
(lp1089
V11
p1090
aI1
aI73371246
aI73377836
asS'Zmym4'
p1091
(lp1092
V4
aI-1
aI126861939
aI126968135
asS'5430419D17Rik'
p1093
(lp1094
V7
aI1
aI131174402
aI131306451
asS'Trim21'
p1095
(lp1096
V7
aI-1
aI102557921
aI102565486
asS'Cntn6'
p1097
(lp1098
V6
aI1
aI104492790
aI104863406
asS'Ccl20'
p1099
(lp1100
V1
aI1
aI83116766
aI83119167
asS'Magee2'
p1101
(lp1102
VX
aI-1
aI104854952
aI104857267
asS'Zfp599'
p1103
(lp1104
V9
aI-1
aI22247430
aI22259895
asS'Dgki'
p1105
(lp1106
V6
aI-1
aI36846022
aI37300184
asS'Camkv'
p1107
(lp1108
V9
aI1
aI107935674
aI107949691
asS'Suclg2'
p1109
(lp1110
V6
aI-1
aI95473009
aI95718800
asS'Map3k13'
p1111
(lp1112
V16
p1113
aI1
aI21891969
aI21931877
asS'Vgll3'
p1114
(lp1115
V16
p1116
aI1
aI65815633
aI65863057
asS'Tmem14c'
p1117
(lp1118
V13
p1119
aI1
aI41016292
aI41022586
asS'Trerf1'
p1120
(lp1121
V17
p1122
aI1
aI47140875
aI47361958
asS'Taf1'
p1123
(lp1124
VX
aI1
aI101532734
aI101601789
asS'Sqrdl'
p1125
(lp1126
S'2'
aS'+'
aI122765359
aI122809553
asS'Hcn1'
p1127
(lp1128
V13
p1129
aI1
aI117602320
aI117987418
asS'Nr2f6'
p1130
(lp1131
V8
aI-1
aI71374123
aI71381960
asS'Nfkbiz'
p1132
(lp1133
V16
p1134
aI-1
aI55811375
aI55838899
asS'Rnd2'
p1135
(lp1136
V11
p1137
aI1
aI101464999
aI101471853
asS'Josd1'
p1138
(lp1139
V15
p1140
aI-1
aI79674250
aI79687872
asS'Shisa8'
p1141
(lp1142
V15
p1143
aI-1
aI82206952
aI82212815
asS'Mal'
p1144
(lp1145
V2
aI-1
aI127633226
aI127656695
asS'Srcap'
p1146
(lp1147
V7
aI1
aI127511983
aI127561219
asS'Chrdl1'
p1148
(lp1149
VX
aI-1
aI143285674
aI143394262
asS'Vwa2'
p1150
(lp1151
V19
p1152
aI1
aI56874249
aI56912078
asS'Gm5155'
p1153
(lp1154
V7
aI1
aI17871961
aI17918798
asS'Psg19'
p1155
(lp1156
V7
aI-1
aI18789567
aI18798520
asS'Efr3a'
p1157
(lp1158
V15
p1159
aI1
aI65787034
aI65873816
asS'Usp37'
p1160
(lp1161
V1
aI-1
aI74435511
aI74544284
asS'Xpo1'
p1162
(lp1163
V11
p1164
aI1
aI23256041
aI23298249
asS'Larp1'
p1165
(lp1166
V11
p1167
aI1
aI58009064
aI58062034
asS'Nemp1'
p1168
(lp1169
V10
p1170
aI1
aI127666901
aI127701049
asS'A830080D01Rik'
p1171
(lp1172
VX
aI1
aI159526688
aI159593081
asS'Rapgef5'
p1173
(lp1174
V12
p1175
aI1
aI117516479
aI117759737
asS'Csmd1'
p1176
(lp1177
V8
aI-1
aI15892537
aI17535586
asS'Ermap'
p1178
(lp1179
V4
aI-1
aI119175457
aI119190011
asS'Baz2b'
p1180
(lp1181
V2
aI-1
aI59899363
aI60209839
asS'Grm7'
p1182
(lp1183
V6
aI1
aI110645581
aI111567230
as.